ARM GAS  C:\Users\jon\AppData\Local\Temp\cckKcl9z.s 			page 1


   1              		.syntax unified
   2              		.cpu cortex-m0
   3              		.fpu softvfp
   4              		.eabi_attribute 20, 1
   5              		.eabi_attribute 21, 1
   6              		.eabi_attribute 23, 3
   7              		.eabi_attribute 24, 1
   8              		.eabi_attribute 25, 1
   9              		.eabi_attribute 26, 1
  10              		.eabi_attribute 30, 6
  11              		.eabi_attribute 34, 0
  12              		.eabi_attribute 18, 4
  13              		.thumb
  14              		.syntax unified
  15              		.file	"CapSense_MBX.c"
  16              		.text
  17              	.Ltext0:
  18              		.cfi_sections	.debug_frame
  19              		.section	.text.CapSense_InitMailbox,"ax",%progbits
  20              		.align	2
  21              		.global	CapSense_InitMailbox
  22              		.code	16
  23              		.thumb_func
  24              		.type	CapSense_InitMailbox, %function
  25              	CapSense_InitMailbox:
  26              	.LFB32:
  27              		.file 1 "Generated_Source\\PSoC4\\CapSense_MBX.c"
   1:Generated_Source\PSoC4/CapSense_MBX.c **** /*******************************************************************************
   2:Generated_Source\PSoC4/CapSense_MBX.c **** * File Name: CapSense_MBX.c
   3:Generated_Source\PSoC4/CapSense_MBX.c **** * Version 2.60
   4:Generated_Source\PSoC4/CapSense_MBX.c **** *
   5:Generated_Source\PSoC4/CapSense_MBX.c **** * Description:
   6:Generated_Source\PSoC4/CapSense_MBX.c **** *  This file provides the source code of Tuner communication APIs for the
   7:Generated_Source\PSoC4/CapSense_MBX.c **** *  CapSense CSD component.
   8:Generated_Source\PSoC4/CapSense_MBX.c **** *
   9:Generated_Source\PSoC4/CapSense_MBX.c **** * Note:
  10:Generated_Source\PSoC4/CapSense_MBX.c **** *
  11:Generated_Source\PSoC4/CapSense_MBX.c **** ********************************************************************************
  12:Generated_Source\PSoC4/CapSense_MBX.c **** * Copyright 2013-2016, Cypress Semiconductor Corporation.  All rights reserved.
  13:Generated_Source\PSoC4/CapSense_MBX.c **** * You may use this file only in accordance with the license, terms, conditions,
  14:Generated_Source\PSoC4/CapSense_MBX.c **** * disclaimers, and limitations in the end user license agreement accompanying
  15:Generated_Source\PSoC4/CapSense_MBX.c **** * the software package with which this file was provided.
  16:Generated_Source\PSoC4/CapSense_MBX.c **** *******************************************************************************/
  17:Generated_Source\PSoC4/CapSense_MBX.c **** 
  18:Generated_Source\PSoC4/CapSense_MBX.c **** #include "CapSense_MBX.h"
  19:Generated_Source\PSoC4/CapSense_MBX.c **** 
  20:Generated_Source\PSoC4/CapSense_MBX.c **** 
  21:Generated_Source\PSoC4/CapSense_MBX.c **** /*******************************************************************************
  22:Generated_Source\PSoC4/CapSense_MBX.c **** *  Place your includes, defines and code here
  23:Generated_Source\PSoC4/CapSense_MBX.c **** ********************************************************************************/
  24:Generated_Source\PSoC4/CapSense_MBX.c **** /* `#START CapSense_MBX` */
  25:Generated_Source\PSoC4/CapSense_MBX.c **** 
  26:Generated_Source\PSoC4/CapSense_MBX.c **** /* `#END` */
  27:Generated_Source\PSoC4/CapSense_MBX.c **** 
  28:Generated_Source\PSoC4/CapSense_MBX.c **** #if (CapSense_TUNING_METHOD == CapSense__TUNING_MANUAL)
  29:Generated_Source\PSoC4/CapSense_MBX.c ****     /*******************************************************************************
  30:Generated_Source\PSoC4/CapSense_MBX.c ****     * Function Name: CapSense_InitCsdParams
ARM GAS  C:\Users\jon\AppData\Local\Temp\cckKcl9z.s 			page 2


  31:Generated_Source\PSoC4/CapSense_MBX.c ****     ********************************************************************************
  32:Generated_Source\PSoC4/CapSense_MBX.c ****     *
  33:Generated_Source\PSoC4/CapSense_MBX.c ****     * Summary:
  34:Generated_Source\PSoC4/CapSense_MBX.c ****     *  Configures the CSD parameters to match the parameters in the inbox.
  35:Generated_Source\PSoC4/CapSense_MBX.c ****     *  Used only in the manual tuning mode to apply new scanning parameters from the Tuner
  36:Generated_Source\PSoC4/CapSense_MBX.c ****     *  GUI.
  37:Generated_Source\PSoC4/CapSense_MBX.c ****     *
  38:Generated_Source\PSoC4/CapSense_MBX.c ****     * Parameters:
  39:Generated_Source\PSoC4/CapSense_MBX.c ****     *  inbox:  Pointer to Inbox structure in RAM.
  40:Generated_Source\PSoC4/CapSense_MBX.c ****     *
  41:Generated_Source\PSoC4/CapSense_MBX.c ****     * Return:
  42:Generated_Source\PSoC4/CapSense_MBX.c ****     *  None. Contents of the structure are not modified.
  43:Generated_Source\PSoC4/CapSense_MBX.c ****     *
  44:Generated_Source\PSoC4/CapSense_MBX.c ****     * Global Variables:
  45:Generated_Source\PSoC4/CapSense_MBX.c ****     *  CapSense_modulationIDAC[]      - stores modulation IDAC values.
  46:Generated_Source\PSoC4/CapSense_MBX.c ****     *  CapSense_compensationIDAC[]    - stores compensation IDAC values.
  47:Generated_Source\PSoC4/CapSense_MBX.c ****     *  CapSense_widgetResolution[]    - used to store the scan resolution values for each widget.
  48:Generated_Source\PSoC4/CapSense_MBX.c ****     *  CapSense_senseClkDividerVal[]  - used to store the sense clock divider values for each widge
  49:Generated_Source\PSoC4/CapSense_MBX.c ****     *  CapSense_sampleClkDividerVal[] - used to store the sample clock divider values for each widg
  50:Generated_Source\PSoC4/CapSense_MBX.c ****     *  CapSense_fingerThreshold[]     - used to store the finger threshold values for each widget.
  51:Generated_Source\PSoC4/CapSense_MBX.c ****     *  CapSense_noiseThreshold[]      - used to store the noise threshold values for each widget.
  52:Generated_Source\PSoC4/CapSense_MBX.c ****     *  CapSense_hysteresis[]          - used to store the hysteresis values for each widget.
  53:Generated_Source\PSoC4/CapSense_MBX.c ****     *  CapSense_debounce[]            - used to store the debounce values for each widget.
  54:Generated_Source\PSoC4/CapSense_MBX.c ****     *
  55:Generated_Source\PSoC4/CapSense_MBX.c ****     *******************************************************************************/
  56:Generated_Source\PSoC4/CapSense_MBX.c ****     static void CapSense_InitCsdParams(volatile const CapSense_INBOX *inbox);
  57:Generated_Source\PSoC4/CapSense_MBX.c ****     static void CapSense_InitCsdParams(volatile const CapSense_INBOX *inbox)
  58:Generated_Source\PSoC4/CapSense_MBX.c ****     {
  59:Generated_Source\PSoC4/CapSense_MBX.c ****         /* Define widget sensor belongs to */
  60:Generated_Source\PSoC4/CapSense_MBX.c ****         uint8 sensor = inbox->sensorIndex;
  61:Generated_Source\PSoC4/CapSense_MBX.c ****         uint8 widget = CapSense_widgetNumber[sensor];
  62:Generated_Source\PSoC4/CapSense_MBX.c **** 
  63:Generated_Source\PSoC4/CapSense_MBX.c ****         /* Scanning parameters */
  64:Generated_Source\PSoC4/CapSense_MBX.c ****         #if(0u == CapSense_AUTOCALIBRATION_ENABLE)
  65:Generated_Source\PSoC4/CapSense_MBX.c ****             CapSense_modulationIDAC[sensor] = inbox->CapSense_inboxCsdCfg.modulatorIDAC;
  66:Generated_Source\PSoC4/CapSense_MBX.c **** 
  67:Generated_Source\PSoC4/CapSense_MBX.c ****             #if (CapSense_IDAC_CNT == 2u)
  68:Generated_Source\PSoC4/CapSense_MBX.c ****                 CapSense_compensationIDAC[sensor] = inbox->CapSense_inboxCsdCfg.compensationIDAC;
  69:Generated_Source\PSoC4/CapSense_MBX.c ****             #endif /* ( CapSense_IDAC_CNT == 2u ) */
  70:Generated_Source\PSoC4/CapSense_MBX.c ****         #endif /* (0u != CapSense_AUTOCALIBRATION_ENABLE) */
  71:Generated_Source\PSoC4/CapSense_MBX.c **** 
  72:Generated_Source\PSoC4/CapSense_MBX.c ****         CapSense_SetIDACRange((uint32)inbox->CapSense_inboxCsdCfg.idacRange);
  73:Generated_Source\PSoC4/CapSense_MBX.c **** 
  74:Generated_Source\PSoC4/CapSense_MBX.c ****         CapSense_widgetResolution[widget] =
  75:Generated_Source\PSoC4/CapSense_MBX.c ****         (uint32)(~(CapSense_RESOLUTION_16_BITS << inbox->CapSense_inboxCsdCfg.scanResolution));
  76:Generated_Source\PSoC4/CapSense_MBX.c **** 
  77:Generated_Source\PSoC4/CapSense_MBX.c ****         CapSense_widgetResolution[widget] &= CapSense_RESOLUTION_16_BITS;
  78:Generated_Source\PSoC4/CapSense_MBX.c **** 
  79:Generated_Source\PSoC4/CapSense_MBX.c ****         #if (0u != CapSense_MULTIPLE_FREQUENCY_SET )
  80:Generated_Source\PSoC4/CapSense_MBX.c ****             CapSense_senseClkDividerVal[sensor] = inbox->CapSense_inboxCsdCfg.analogSwitchDivider;
  81:Generated_Source\PSoC4/CapSense_MBX.c ****             CapSense_sampleClkDividerVal[sensor] = inbox->CapSense_inboxCsdCfg.modulatorDivider;
  82:Generated_Source\PSoC4/CapSense_MBX.c ****         #else
  83:Generated_Source\PSoC4/CapSense_MBX.c ****             CapSense_senseClkDividerVal = inbox->CapSense_inboxCsdCfg.analogSwitchDivider;
  84:Generated_Source\PSoC4/CapSense_MBX.c ****             CapSense_sampleClkDividerVal = inbox->CapSense_inboxCsdCfg.modulatorDivider;
  85:Generated_Source\PSoC4/CapSense_MBX.c ****         #endif /* (0u != CapSense_MULTIPLE_FREQUENCY_SET ) */
  86:Generated_Source\PSoC4/CapSense_MBX.c **** 
  87:Generated_Source\PSoC4/CapSense_MBX.c ****         #if(0u != CapSense_CSHL_API_GENERATE)
ARM GAS  C:\Users\jon\AppData\Local\Temp\cckKcl9z.s 			page 3


  88:Generated_Source\PSoC4/CapSense_MBX.c ****             #if (0u != CapSense_TOTAL_GENERICS_COUNT)
  89:Generated_Source\PSoC4/CapSense_MBX.c ****                 /* Exclude generic widget */
  90:Generated_Source\PSoC4/CapSense_MBX.c ****                 if(widget < CapSense_END_OF_WIDGETS_INDEX)
  91:Generated_Source\PSoC4/CapSense_MBX.c ****                 {
  92:Generated_Source\PSoC4/CapSense_MBX.c ****             #endif  /* 0u != CapSense_TOTAL_GENERICS_COUNT */
  93:Generated_Source\PSoC4/CapSense_MBX.c **** 
  94:Generated_Source\PSoC4/CapSense_MBX.c ****                 /* High level parameters */
  95:Generated_Source\PSoC4/CapSense_MBX.c ****                 CapSense_fingerThreshold[widget] = inbox->CapSense_inboxCsdCfg.fingerThreshold;
  96:Generated_Source\PSoC4/CapSense_MBX.c ****                 CapSense_noiseThreshold[widget]  = inbox->CapSense_inboxCsdCfg.noiseThreshold;
  97:Generated_Source\PSoC4/CapSense_MBX.c **** 
  98:Generated_Source\PSoC4/CapSense_MBX.c ****                 CapSense_hysteresis[widget] = inbox->CapSense_inboxCsdCfg.hysteresis;
  99:Generated_Source\PSoC4/CapSense_MBX.c ****                 CapSense_debounce[widget]   = inbox->CapSense_inboxCsdCfg.debounce;
 100:Generated_Source\PSoC4/CapSense_MBX.c **** 
 101:Generated_Source\PSoC4/CapSense_MBX.c ****                 #if(CapSense_TOTAL_TRACKPAD_GESTURES_COUNT > 0u)
 102:Generated_Source\PSoC4/CapSense_MBX.c ****                     CapSense_centroidMult[widget] = (uint16)((inbox->CapSense_inboxCsdCfg.apiResolu
 103:Generated_Source\PSoC4/CapSense_MBX.c ****                                                             (uint32)CapSense_RES_MULT) / (uint32)Ca
 104:Generated_Source\PSoC4/CapSense_MBX.c **** 
 105:Generated_Source\PSoC4/CapSense_MBX.c ****                 #endif /* (CapSense_TOTAL_TRACKPAD_GESTURES_COUNT > 0u) */
 106:Generated_Source\PSoC4/CapSense_MBX.c **** 
 107:Generated_Source\PSoC4/CapSense_MBX.c ****             #if (0u != CapSense_TOTAL_GENERICS_COUNT)
 108:Generated_Source\PSoC4/CapSense_MBX.c ****                 /* Exclude generic widget */
 109:Generated_Source\PSoC4/CapSense_MBX.c ****                 }
 110:Generated_Source\PSoC4/CapSense_MBX.c ****             #endif  /* 0u != CapSense_TOTAL_GENERICS_COUNT */
 111:Generated_Source\PSoC4/CapSense_MBX.c **** 
 112:Generated_Source\PSoC4/CapSense_MBX.c ****             /* Re-Init baseline */
 113:Generated_Source\PSoC4/CapSense_MBX.c ****             CapSense_InitializeAllBaselines();
 114:Generated_Source\PSoC4/CapSense_MBX.c ****         #endif /* (0u != CapSense_CSHL_API_GENERATE) */
 115:Generated_Source\PSoC4/CapSense_MBX.c ****     }
 116:Generated_Source\PSoC4/CapSense_MBX.c **** #endif  /* (CapSense_TUNING_METHOD == CapSense__TUNING_MANUAL) */
 117:Generated_Source\PSoC4/CapSense_MBX.c **** 
 118:Generated_Source\PSoC4/CapSense_MBX.c **** 
 119:Generated_Source\PSoC4/CapSense_MBX.c ****     /*******************************************************************************
 120:Generated_Source\PSoC4/CapSense_MBX.c ****     * Function Name: CapSense_InitGesturesParams
 121:Generated_Source\PSoC4/CapSense_MBX.c ****     ********************************************************************************
 122:Generated_Source\PSoC4/CapSense_MBX.c ****     *
 123:Generated_Source\PSoC4/CapSense_MBX.c ****     * Summary:
 124:Generated_Source\PSoC4/CapSense_MBX.c ****     *  Configures the parameters of gestures to match the parameters in the inbox.
 125:Generated_Source\PSoC4/CapSense_MBX.c ****     *  Used only in the manual and auto tuning mode or if the gestures support is enabled.
 126:Generated_Source\PSoC4/CapSense_MBX.c ****     *  Intended apply new scanning parameters from the Tuner GUI.
 127:Generated_Source\PSoC4/CapSense_MBX.c ****     *
 128:Generated_Source\PSoC4/CapSense_MBX.c ****     * Parameters:
 129:Generated_Source\PSoC4/CapSense_MBX.c ****     *  inbox:  Pointer to Inbox structure in RAM.
 130:Generated_Source\PSoC4/CapSense_MBX.c ****     *
 131:Generated_Source\PSoC4/CapSense_MBX.c ****     * Return:
 132:Generated_Source\PSoC4/CapSense_MBX.c ****     *  None. Contents of the structure are not modified.
 133:Generated_Source\PSoC4/CapSense_MBX.c ****     *
 134:Generated_Source\PSoC4/CapSense_MBX.c ****     *******************************************************************************/
 135:Generated_Source\PSoC4/CapSense_MBX.c **** #if((CapSense_TUNING_METHOD != CapSense__TUNING_NONE) && (0u != CapSense_TOTAL_TRACKPAD_GESTURES_CO
 136:Generated_Source\PSoC4/CapSense_MBX.c ****     static void CapSense_InitGesturesParams(volatile const CapSense_INBOX *inbox);
 137:Generated_Source\PSoC4/CapSense_MBX.c ****     static void CapSense_InitGesturesParams(volatile const CapSense_INBOX *inbox)
 138:Generated_Source\PSoC4/CapSense_MBX.c ****     {
 139:Generated_Source\PSoC4/CapSense_MBX.c ****         #if(0u != CapSense_IS_ANY_GESTURES_EN)
 140:Generated_Source\PSoC4/CapSense_MBX.c ****             #if(0u != CapSense_CLICK_GEST_ENABLED)
 141:Generated_Source\PSoC4/CapSense_MBX.c ****                 CapSense_gesturesConfig.clickRadiusX            = (uint8)inbox->CapSense_inboxTmgCf
 142:Generated_Source\PSoC4/CapSense_MBX.c ****                 CapSense_gesturesConfig.clickRadiusY            = (uint8)inbox->CapSense_inboxTmgCf
 143:Generated_Source\PSoC4/CapSense_MBX.c ****                 CapSense_gesturesConfig.doubleClickRadius       = (uint8)inbox->CapSense_inboxTmgCf
 144:Generated_Source\PSoC4/CapSense_MBX.c ****                 CapSense_gesturesConfig.STDoubleClickTimeoutMax = inbox->CapSense_inboxTmgCfg.stDou
ARM GAS  C:\Users\jon\AppData\Local\Temp\cckKcl9z.s 			page 4


 145:Generated_Source\PSoC4/CapSense_MBX.c ****                 CapSense_gesturesConfig.STDoubleClickTimeoutMin = inbox->CapSense_inboxTmgCfg.stDou
 146:Generated_Source\PSoC4/CapSense_MBX.c ****                 CapSense_gesturesConfig.STClickTimeoutMax       = inbox->CapSense_inboxTmgCfg.stCli
 147:Generated_Source\PSoC4/CapSense_MBX.c ****                 CapSense_gesturesConfig.STClickTimeoutMin       = inbox->CapSense_inboxTmgCfg.stCli
 148:Generated_Source\PSoC4/CapSense_MBX.c ****                 CapSense_gesturesConfig.DTClickTimeoutMax       = inbox->CapSense_inboxTmgCfg.dtCli
 149:Generated_Source\PSoC4/CapSense_MBX.c ****                 CapSense_gesturesConfig.DTClickTimeoutMin       = inbox->CapSense_inboxTmgCfg.dtCli
 150:Generated_Source\PSoC4/CapSense_MBX.c ****             #endif /* (0u != CapSense_CLICK_GEST_ENABLED) */
 151:Generated_Source\PSoC4/CapSense_MBX.c **** 
 152:Generated_Source\PSoC4/CapSense_MBX.c ****             #if(0u != CapSense_ZOOM_GEST_ENABLED)
 153:Generated_Source\PSoC4/CapSense_MBX.c ****                 CapSense_gesturesConfig.dtScrollToZoomDebounce  = inbox->CapSense_inboxTmgCfg.dtPan
 154:Generated_Source\PSoC4/CapSense_MBX.c ****                 CapSense_gesturesConfig.DTZoomDebounce          = inbox->CapSense_inboxTmgCfg.dtZoo
 155:Generated_Source\PSoC4/CapSense_MBX.c ****                 CapSense_gesturesConfig.zoomActiveDistanceX     = inbox->CapSense_inboxTmgCfg.zoomA
 156:Generated_Source\PSoC4/CapSense_MBX.c ****                 CapSense_gesturesConfig.zoomActiveDistanceY     = inbox->CapSense_inboxTmgCfg.zoomA
 157:Generated_Source\PSoC4/CapSense_MBX.c ****             #endif /* (0u != CapSense_ZOOM_GEST_ENABLED) */
 158:Generated_Source\PSoC4/CapSense_MBX.c **** 
 159:Generated_Source\PSoC4/CapSense_MBX.c ****             #if(0u != CapSense_ST_SCROLL_GEST_ENABLED)
 160:Generated_Source\PSoC4/CapSense_MBX.c ****                 CapSense_gesturesConfig.stScrollDebounce        = inbox->CapSense_inboxTmgCfg.stScr
 161:Generated_Source\PSoC4/CapSense_MBX.c **** 
 162:Generated_Source\PSoC4/CapSense_MBX.c ****                 CapSense_gesturesConfig.stScrollThreshold1X     = inbox->CapSense_inboxTmgCfg.stScr
 163:Generated_Source\PSoC4/CapSense_MBX.c ****                 CapSense_gesturesConfig.stScrollThreshold2X     = inbox->CapSense_inboxTmgCfg.stScr
 164:Generated_Source\PSoC4/CapSense_MBX.c ****                 CapSense_gesturesConfig.stScrollThreshold3X     = inbox->CapSense_inboxTmgCfg.stScr
 165:Generated_Source\PSoC4/CapSense_MBX.c ****                 CapSense_gesturesConfig.stScrollThreshold4X     = inbox->CapSense_inboxTmgCfg.stScr
 166:Generated_Source\PSoC4/CapSense_MBX.c ****                 CapSense_gesturesConfig.stScrollThreshold1Y     = inbox->CapSense_inboxTmgCfg.stScr
 167:Generated_Source\PSoC4/CapSense_MBX.c ****                 CapSense_gesturesConfig.stScrollThreshold2Y     = inbox->CapSense_inboxTmgCfg.stScr
 168:Generated_Source\PSoC4/CapSense_MBX.c ****                 CapSense_gesturesConfig.stScrollThreshold3Y     = inbox->CapSense_inboxTmgCfg.stScr
 169:Generated_Source\PSoC4/CapSense_MBX.c ****                 CapSense_gesturesConfig.stScrollThreshold4Y     = inbox->CapSense_inboxTmgCfg.stScr
 170:Generated_Source\PSoC4/CapSense_MBX.c ****                 CapSense_gesturesConfig.stScrollStep1           = inbox->CapSense_inboxTmgCfg.stScr
 171:Generated_Source\PSoC4/CapSense_MBX.c ****                 CapSense_gesturesConfig.stScrollStep2           = inbox->CapSense_inboxTmgCfg.stScr
 172:Generated_Source\PSoC4/CapSense_MBX.c ****                 CapSense_gesturesConfig.stScrollStep3           = inbox->CapSense_inboxTmgCfg.stScr
 173:Generated_Source\PSoC4/CapSense_MBX.c ****                 CapSense_gesturesConfig.stScrollStep4           = inbox->CapSense_inboxTmgCfg.stScr
 174:Generated_Source\PSoC4/CapSense_MBX.c ****                 CapSense_gesturesConfig.stInScrActiveDistanceX  = inbox->CapSense_inboxTmgCfg.stInS
 175:Generated_Source\PSoC4/CapSense_MBX.c ****                 CapSense_gesturesConfig.stInScrActiveDistanceY  = inbox->CapSense_inboxTmgCfg.stInS
 176:Generated_Source\PSoC4/CapSense_MBX.c ****                 CapSense_gesturesConfig.stInScrCountLevel       = inbox->CapSense_inboxTmgCfg.stInS
 177:Generated_Source\PSoC4/CapSense_MBX.c ****             #endif /* (0u != CapSense_ST_SCROLL_GEST_ENABLED) */
 178:Generated_Source\PSoC4/CapSense_MBX.c **** 
 179:Generated_Source\PSoC4/CapSense_MBX.c ****             #if(0u != CapSense_DT_SCROLL_GEST_ENABLED)
 180:Generated_Source\PSoC4/CapSense_MBX.c ****                 CapSense_gesturesConfig.dtScrollDebounce        = inbox->CapSense_inboxTmgCfg.dtScr
 181:Generated_Source\PSoC4/CapSense_MBX.c ****                 CapSense_gesturesConfig.dtScrollThreshold1X     = inbox->CapSense_inboxTmgCfg.dtScr
 182:Generated_Source\PSoC4/CapSense_MBX.c ****                 CapSense_gesturesConfig.dtScrollThreshold2X     = inbox->CapSense_inboxTmgCfg.dtScr
 183:Generated_Source\PSoC4/CapSense_MBX.c ****                 CapSense_gesturesConfig.dtScrollThreshold3X     = inbox->CapSense_inboxTmgCfg.dtScr
 184:Generated_Source\PSoC4/CapSense_MBX.c ****                 CapSense_gesturesConfig.dtScrollThreshold4X     = inbox->CapSense_inboxTmgCfg.dtScr
 185:Generated_Source\PSoC4/CapSense_MBX.c ****                 CapSense_gesturesConfig.dtScrollThreshold1Y     = inbox->CapSense_inboxTmgCfg.dtScr
 186:Generated_Source\PSoC4/CapSense_MBX.c ****                 CapSense_gesturesConfig.dtScrollThreshold2Y     = inbox->CapSense_inboxTmgCfg.dtScr
 187:Generated_Source\PSoC4/CapSense_MBX.c ****                 CapSense_gesturesConfig.dtScrollThreshold3Y     = inbox->CapSense_inboxTmgCfg.dtScr
 188:Generated_Source\PSoC4/CapSense_MBX.c ****                 CapSense_gesturesConfig.dtScrollThreshold4Y     = inbox->CapSense_inboxTmgCfg.dtScr
 189:Generated_Source\PSoC4/CapSense_MBX.c ****                 CapSense_gesturesConfig.dtScrollStep1           = inbox->CapSense_inboxTmgCfg.dtScr
 190:Generated_Source\PSoC4/CapSense_MBX.c ****                 CapSense_gesturesConfig.dtScrollStep2           = inbox->CapSense_inboxTmgCfg.dtScr
 191:Generated_Source\PSoC4/CapSense_MBX.c ****                 CapSense_gesturesConfig.dtScrollStep3           = inbox->CapSense_inboxTmgCfg.dtScr
 192:Generated_Source\PSoC4/CapSense_MBX.c ****                 CapSense_gesturesConfig.dtScrollStep4           = inbox->CapSense_inboxTmgCfg.dtScr
 193:Generated_Source\PSoC4/CapSense_MBX.c ****                 CapSense_gesturesConfig.dtInScrActiveDistanceX  = inbox->CapSense_inboxTmgCfg.dtInS
 194:Generated_Source\PSoC4/CapSense_MBX.c ****                 CapSense_gesturesConfig.dtInScrActiveDistanceY  = inbox->CapSense_inboxTmgCfg.dtInS
 195:Generated_Source\PSoC4/CapSense_MBX.c ****                 CapSense_gesturesConfig.dtInScrCountLevel       = inbox->CapSense_inboxTmgCfg.dtInS
 196:Generated_Source\PSoC4/CapSense_MBX.c ****             #endif /* (0u != CapSense_DT_SCROLL_GEST_ENABLED) */
 197:Generated_Source\PSoC4/CapSense_MBX.c **** 
 198:Generated_Source\PSoC4/CapSense_MBX.c ****             #if(0u != CapSense_FLICK_GEST_ENABLED)
 199:Generated_Source\PSoC4/CapSense_MBX.c ****                 CapSense_gesturesConfig.flickSampleTime         = inbox->CapSense_inboxTmgCfg.flick
 200:Generated_Source\PSoC4/CapSense_MBX.c ****                 CapSense_gesturesConfig.flickActiveDistanceX    = inbox->CapSense_inboxTmgCfg.flick
 201:Generated_Source\PSoC4/CapSense_MBX.c ****                 CapSense_gesturesConfig.flickActiveDistanceY    = inbox->CapSense_inboxTmgCfg.flick
ARM GAS  C:\Users\jon\AppData\Local\Temp\cckKcl9z.s 			page 5


 202:Generated_Source\PSoC4/CapSense_MBX.c ****             #endif /* (0u != CapSense_FLICK_GEST_ENABLED) */
 203:Generated_Source\PSoC4/CapSense_MBX.c **** 
 204:Generated_Source\PSoC4/CapSense_MBX.c ****             #if(0u != CapSense_ROTATE_GEST_ENABLED)
 205:Generated_Source\PSoC4/CapSense_MBX.c ****                 CapSense_gesturesConfig.rotateDebounce          = inbox->CapSense_inboxTmgCfg.rotat
 206:Generated_Source\PSoC4/CapSense_MBX.c ****             #endif /* (0u != CapSense_ROTATE_GEST_ENABLED) */
 207:Generated_Source\PSoC4/CapSense_MBX.c **** 
 208:Generated_Source\PSoC4/CapSense_MBX.c ****             #if(0u != CapSense_EDGE_SWIPE_GEST_ENABLED)
 209:Generated_Source\PSoC4/CapSense_MBX.c ****                 CapSense_gesturesConfig.edgeSwipeActiveDistance = inbox->CapSense_inboxTmgCfg.edgeS
 210:Generated_Source\PSoC4/CapSense_MBX.c ****                 CapSense_gesturesConfig.bottomAngleThreshold    = inbox->CapSense_inboxTmgCfg.botto
 211:Generated_Source\PSoC4/CapSense_MBX.c ****                 CapSense_gesturesConfig.edgeSwipeTimeout        = inbox->CapSense_inboxTmgCfg.edgeS
 212:Generated_Source\PSoC4/CapSense_MBX.c ****                 CapSense_TMG_edgeSwipeCompleteTimeout           = inbox->CapSense_inboxTmgCfg.edgeS
 213:Generated_Source\PSoC4/CapSense_MBX.c ****                 CapSense_gesturesConfig.topAngleThreshold       = inbox->CapSense_inboxTmgCfg.topAn
 214:Generated_Source\PSoC4/CapSense_MBX.c ****                 CapSense_gesturesConfig.widthOfDisambiguation   = inbox->CapSense_inboxTmgCfg.width
 215:Generated_Source\PSoC4/CapSense_MBX.c ****             #endif /* (0u != CapSense_EDGE_SWIPE_GEST_ENABLED) */
 216:Generated_Source\PSoC4/CapSense_MBX.c **** 
 217:Generated_Source\PSoC4/CapSense_MBX.c ****             CapSense_TMG_InitGestures(&CapSense_gesturesConfig);
 218:Generated_Source\PSoC4/CapSense_MBX.c ****         #endif /* (0u != CapSense_IS_ANY_GESTURES_EN) */
 219:Generated_Source\PSoC4/CapSense_MBX.c **** 
 220:Generated_Source\PSoC4/CapSense_MBX.c ****         #if(0u != CapSense_TP_GESTURE_POS_FILTERS_MASK)
 221:Generated_Source\PSoC4/CapSense_MBX.c ****             CapSense_posFiltersMask[CapSense_TRACKPAD__TPG] = inbox->CapSense_inboxTmgCfg.filtersMa
 222:Generated_Source\PSoC4/CapSense_MBX.c ****         #endif /* (0u != CapSense_TP_GESTURE_POS_FILTERS_MASK) */
 223:Generated_Source\PSoC4/CapSense_MBX.c **** 
 224:Generated_Source\PSoC4/CapSense_MBX.c ****         #if(0u != (CapSense_XY_ADAPTIVE_IIR_MASK & CapSense_TP_GESTURE_POS_FILTERS_MASK))
 225:Generated_Source\PSoC4/CapSense_MBX.c ****             CapSense_adpFltOptions.divVal       = inbox->CapSense_inboxTmgCfg.filterDivisor;
 226:Generated_Source\PSoC4/CapSense_MBX.c ****             CapSense_adpFltOptions.largeMovTh   = inbox->CapSense_inboxTmgCfg.largeMovThreshold;
 227:Generated_Source\PSoC4/CapSense_MBX.c ****             CapSense_adpFltOptions.littleMovTh  = inbox->CapSense_inboxTmgCfg.littleMovThreshold;
 228:Generated_Source\PSoC4/CapSense_MBX.c ****             CapSense_adpFltOptions.maxK     = inbox->CapSense_inboxTmgCfg.maxFilterCoef;
 229:Generated_Source\PSoC4/CapSense_MBX.c ****             CapSense_adpFltOptions.minK     = inbox->CapSense_inboxTmgCfg.minFilterCoef;
 230:Generated_Source\PSoC4/CapSense_MBX.c ****             CapSense_adpFltOptions.noMovTh      = inbox->CapSense_inboxTmgCfg.noMovThreshold;
 231:Generated_Source\PSoC4/CapSense_MBX.c ****         #endif /* (0u != (CapSense_XY_ADAPTIVE_IIR_MASK & CapSense_TP_GESTURE_POS_FILTERS_MASK)) */
 232:Generated_Source\PSoC4/CapSense_MBX.c ****     }
 233:Generated_Source\PSoC4/CapSense_MBX.c **** #endif /* ((CapSense_TUNING_METHOD != CapSense__TUNING_NONE) && (0u != CapSense_TOTAL_TRACKPAD_GEST
 234:Generated_Source\PSoC4/CapSense_MBX.c **** 
 235:Generated_Source\PSoC4/CapSense_MBX.c **** 
 236:Generated_Source\PSoC4/CapSense_MBX.c **** /*******************************************************************************
 237:Generated_Source\PSoC4/CapSense_MBX.c **** * Function Name: CapSense_InitMailbox
 238:Generated_Source\PSoC4/CapSense_MBX.c **** ********************************************************************************
 239:Generated_Source\PSoC4/CapSense_MBX.c **** *
 240:Generated_Source\PSoC4/CapSense_MBX.c **** * Summary:
 241:Generated_Source\PSoC4/CapSense_MBX.c **** *  Initializes parameters of the mailbox structure.
 242:Generated_Source\PSoC4/CapSense_MBX.c **** *  Sets the type and size of the mailbox structure.
 243:Generated_Source\PSoC4/CapSense_MBX.c **** *  Sets a check sum to check by the Tuner GUI and noReadMsg flag to indicate that this
 244:Generated_Source\PSoC4/CapSense_MBX.c **** *  is the first communication packet.
 245:Generated_Source\PSoC4/CapSense_MBX.c **** *
 246:Generated_Source\PSoC4/CapSense_MBX.c **** * Parameters:
 247:Generated_Source\PSoC4/CapSense_MBX.c **** *  mbx:  Pointer to Mailbox structure in RAM.
 248:Generated_Source\PSoC4/CapSense_MBX.c **** *
 249:Generated_Source\PSoC4/CapSense_MBX.c **** * Return:
 250:Generated_Source\PSoC4/CapSense_MBX.c **** *  None. Modifies the contents of mbx and mbx->outbox.
 251:Generated_Source\PSoC4/CapSense_MBX.c **** *
 252:Generated_Source\PSoC4/CapSense_MBX.c **** * Global Variables:
 253:Generated_Source\PSoC4/CapSense_MBX.c **** *  None
 254:Generated_Source\PSoC4/CapSense_MBX.c **** *
 255:Generated_Source\PSoC4/CapSense_MBX.c **** *******************************************************************************/
 256:Generated_Source\PSoC4/CapSense_MBX.c **** void CapSense_InitMailbox(volatile CapSense_MAILBOX *mbx)
 257:Generated_Source\PSoC4/CapSense_MBX.c **** {
  28              		.loc 1 257 0
ARM GAS  C:\Users\jon\AppData\Local\Temp\cckKcl9z.s 			page 6


  29              		.cfi_startproc
  30              		@ args = 0, pretend = 0, frame = 8
  31              		@ frame_needed = 1, uses_anonymous_args = 0
  32 0000 80B5     		push	{r7, lr}
  33              		.cfi_def_cfa_offset 8
  34              		.cfi_offset 7, -8
  35              		.cfi_offset 14, -4
  36 0002 82B0     		sub	sp, sp, #8
  37              		.cfi_def_cfa_offset 16
  38 0004 00AF     		add	r7, sp, #0
  39              		.cfi_def_cfa_register 7
  40 0006 7860     		str	r0, [r7, #4]
 258:Generated_Source\PSoC4/CapSense_MBX.c ****     /* Restore TYPE_ID (clear busy flag) to indicate "action complete" */
 259:Generated_Source\PSoC4/CapSense_MBX.c ****     mbx->type = CapSense_TYPE_ID;
  41              		.loc 1 259 0
  42 0008 7B68     		ldr	r3, [r7, #4]
  43 000a 0422     		movs	r2, #4
  44 000c 1A70     		strb	r2, [r3]
 260:Generated_Source\PSoC4/CapSense_MBX.c ****     /* Restore default value - clear "have_msg" */
 261:Generated_Source\PSoC4/CapSense_MBX.c ****     mbx->size = sizeof(CapSense_MAILBOX);
  45              		.loc 1 261 0
  46 000e 7B68     		ldr	r3, [r7, #4]
  47 0010 0133     		adds	r3, r3, #1
  48 0012 1A78     		ldrb	r2, [r3]
  49 0014 0021     		movs	r1, #0
  50 0016 0A40     		ands	r2, r1
  51 0018 111C     		adds	r1, r2, #0
  52 001a 3922     		movs	r2, #57
  53 001c 0A43     		orrs	r2, r1
  54 001e 1A70     		strb	r2, [r3]
  55 0020 5A78     		ldrb	r2, [r3, #1]
  56 0022 0021     		movs	r1, #0
  57 0024 0A40     		ands	r2, r1
  58 0026 5A70     		strb	r2, [r3, #1]
 262:Generated_Source\PSoC4/CapSense_MBX.c **** 
 263:Generated_Source\PSoC4/CapSense_MBX.c ****     /* Additional fields for async and reset handling */
 264:Generated_Source\PSoC4/CapSense_MBX.c ****     #if((CapSense_TUNING_METHOD != CapSense__TUNING_NONE) && (0u != CapSense_TOTAL_TRACKPAD_GESTURE
 265:Generated_Source\PSoC4/CapSense_MBX.c ****         (CapSense_TUNING_METHOD == CapSense__TUNING_MANUAL))
 266:Generated_Source\PSoC4/CapSense_MBX.c ****         mbx->outbox.noReadMessage = 1u;
 267:Generated_Source\PSoC4/CapSense_MBX.c ****     #endif  /* ((CapSense_TUNING_METHOD != CapSense__TUNING_NONE) && (0u != CapSense_TOTAL_TRACKPAD
 268:Generated_Source\PSoC4/CapSense_MBX.c ****                 (CapSense_TUNING_METHOD == CapSense__TUNING_MANUAL)) */
 269:Generated_Source\PSoC4/CapSense_MBX.c **** 
 270:Generated_Source\PSoC4/CapSense_MBX.c ****     mbx->outbox.checkSum = (uint16)(CapSense_CHECK_SUM);
  59              		.loc 1 270 0
  60 0028 7B68     		ldr	r3, [r7, #4]
  61 002a 3733     		adds	r3, r3, #55
  62 002c 1A78     		ldrb	r2, [r3]
  63 002e 0021     		movs	r1, #0
  64 0030 0A40     		ands	r2, r1
  65 0032 111C     		adds	r1, r2, #0
  66 0034 1C22     		movs	r2, #28
  67 0036 5242     		rsbs	r2, r2, #0
  68 0038 0A43     		orrs	r2, r1
  69 003a 1A70     		strb	r2, [r3]
  70 003c 5A78     		ldrb	r2, [r3, #1]
  71 003e 0021     		movs	r1, #0
  72 0040 0A40     		ands	r2, r1
ARM GAS  C:\Users\jon\AppData\Local\Temp\cckKcl9z.s 			page 7


  73 0042 111C     		adds	r1, r2, #0
  74 0044 3F22     		movs	r2, #63
  75 0046 0A43     		orrs	r2, r1
  76 0048 5A70     		strb	r2, [r3, #1]
 271:Generated_Source\PSoC4/CapSense_MBX.c **** }
  77              		.loc 1 271 0
  78 004a C046     		nop
  79 004c BD46     		mov	sp, r7
  80 004e 02B0     		add	sp, sp, #8
  81              		@ sp needed
  82 0050 80BD     		pop	{r7, pc}
  83              		.cfi_endproc
  84              	.LFE32:
  85              		.size	CapSense_InitMailbox, .-CapSense_InitMailbox
  86 0052 C046     		.section	.text.CapSense_PostMessage,"ax",%progbits
  87              		.align	2
  88              		.global	CapSense_PostMessage
  89              		.code	16
  90              		.thumb_func
  91              		.type	CapSense_PostMessage, %function
  92              	CapSense_PostMessage:
  93              	.LFB33:
 272:Generated_Source\PSoC4/CapSense_MBX.c **** 
 273:Generated_Source\PSoC4/CapSense_MBX.c **** 
 274:Generated_Source\PSoC4/CapSense_MBX.c **** /*******************************************************************************
 275:Generated_Source\PSoC4/CapSense_MBX.c **** * Function Name:  CapSense_PostMessage
 276:Generated_Source\PSoC4/CapSense_MBX.c **** ********************************************************************************
 277:Generated_Source\PSoC4/CapSense_MBX.c **** *
 278:Generated_Source\PSoC4/CapSense_MBX.c **** * Summary:
 279:Generated_Source\PSoC4/CapSense_MBX.c **** *  This blocking function waits while the Tuner GUI reports that the mailbox content
 280:Generated_Source\PSoC4/CapSense_MBX.c **** *  could be modified (clears CapSense_BUSY_FLAG). Then loads the report
 281:Generated_Source\PSoC4/CapSense_MBX.c **** *  data to the outbox and sets a busy flag.
 282:Generated_Source\PSoC4/CapSense_MBX.c **** *  In the manual tuning mode the report data is:
 283:Generated_Source\PSoC4/CapSense_MBX.c **** *    - raw data, baseline, signal;
 284:Generated_Source\PSoC4/CapSense_MBX.c **** *  In the auto tuning mode the added data is:
 285:Generated_Source\PSoC4/CapSense_MBX.c **** *    - fingerThreshold;
 286:Generated_Source\PSoC4/CapSense_MBX.c **** *    - noiseThreshold;
 287:Generated_Source\PSoC4/CapSense_MBX.c **** *    - scanResolution;
 288:Generated_Source\PSoC4/CapSense_MBX.c **** *    - idacValue;
 289:Generated_Source\PSoC4/CapSense_MBX.c **** *    - prescaler.
 290:Generated_Source\PSoC4/CapSense_MBX.c **** *
 291:Generated_Source\PSoC4/CapSense_MBX.c **** * Parameters:
 292:Generated_Source\PSoC4/CapSense_MBX.c **** *  mbx:  Pointer to Mailbox structure in RAM.
 293:Generated_Source\PSoC4/CapSense_MBX.c **** *
 294:Generated_Source\PSoC4/CapSense_MBX.c **** * Return:
 295:Generated_Source\PSoC4/CapSense_MBX.c **** *  None. Modifies the contents of mbx->outbox.
 296:Generated_Source\PSoC4/CapSense_MBX.c **** *
 297:Generated_Source\PSoC4/CapSense_MBX.c **** * Global Variables:
 298:Generated_Source\PSoC4/CapSense_MBX.c **** *  None
 299:Generated_Source\PSoC4/CapSense_MBX.c **** *
 300:Generated_Source\PSoC4/CapSense_MBX.c **** *******************************************************************************/
 301:Generated_Source\PSoC4/CapSense_MBX.c **** void CapSense_PostMessage(volatile CapSense_MAILBOX *mbx)
 302:Generated_Source\PSoC4/CapSense_MBX.c **** {
  94              		.loc 1 302 0
  95              		.cfi_startproc
  96              		@ args = 0, pretend = 0, frame = 16
  97              		@ frame_needed = 1, uses_anonymous_args = 0
ARM GAS  C:\Users\jon\AppData\Local\Temp\cckKcl9z.s 			page 8


  98 0000 90B5     		push	{r4, r7, lr}
  99              		.cfi_def_cfa_offset 12
 100              		.cfi_offset 4, -12
 101              		.cfi_offset 7, -8
 102              		.cfi_offset 14, -4
 103 0002 85B0     		sub	sp, sp, #20
 104              		.cfi_def_cfa_offset 32
 105 0004 00AF     		add	r7, sp, #0
 106              		.cfi_def_cfa_register 7
 107 0006 7860     		str	r0, [r7, #4]
 303:Generated_Source\PSoC4/CapSense_MBX.c ****     uint8 i;
 304:Generated_Source\PSoC4/CapSense_MBX.c **** 
 305:Generated_Source\PSoC4/CapSense_MBX.c ****     #if ( CapSense_TUNING_METHOD == CapSense__TUNING_AUTO )
 306:Generated_Source\PSoC4/CapSense_MBX.c ****         uint8 tmpResolutionIndex;
 307:Generated_Source\PSoC4/CapSense_MBX.c ****         uint16 tmpResolutionValue;
 308:Generated_Source\PSoC4/CapSense_MBX.c ****     #endif /* ( CapSense_TUNING_METHOD == CapSense__TUNING_AUTO ) */
 309:Generated_Source\PSoC4/CapSense_MBX.c **** 
 310:Generated_Source\PSoC4/CapSense_MBX.c ****     /* Check busy flag */
 311:Generated_Source\PSoC4/CapSense_MBX.c ****     while (mbx->type != CapSense_TYPE_ID){}
 108              		.loc 1 311 0
 109 0008 C046     		nop
 110              	.L3:
 111              		.loc 1 311 0 is_stmt 0 discriminator 1
 112 000a 7B68     		ldr	r3, [r7, #4]
 113 000c 1B78     		ldrb	r3, [r3]
 114 000e DBB2     		uxtb	r3, r3
 115 0010 042B     		cmp	r3, #4
 116 0012 FAD1     		bne	.L3
 312:Generated_Source\PSoC4/CapSense_MBX.c **** 
 313:Generated_Source\PSoC4/CapSense_MBX.c ****     /* Copy scan parameters */
 314:Generated_Source\PSoC4/CapSense_MBX.c ****     #if((CapSense_TUNING_METHOD == CapSense__TUNING_AUTO) || (0u != CapSense_AUTOCALIBRATION_ENABLE
 315:Generated_Source\PSoC4/CapSense_MBX.c ****         /* Copy tuned idac values */
 316:Generated_Source\PSoC4/CapSense_MBX.c ****         for(i = 0u; i < CapSense_TOTAL_SENSOR_COUNT; i++)
 117              		.loc 1 316 0 is_stmt 1
 118 0014 0F23     		movs	r3, #15
 119 0016 FB18     		adds	r3, r7, r3
 120 0018 0022     		movs	r2, #0
 121 001a 1A70     		strb	r2, [r3]
 122 001c 22E0     		b	.L4
 123              	.L5:
 317:Generated_Source\PSoC4/CapSense_MBX.c ****         {
 318:Generated_Source\PSoC4/CapSense_MBX.c ****             mbx->outbox.modulationIDAC[i] = CapSense_modulationIDAC[i];
 124              		.loc 1 318 0 discriminator 3
 125 001e 0F23     		movs	r3, #15
 126 0020 FB18     		adds	r3, r7, r3
 127 0022 1B78     		ldrb	r3, [r3]
 128 0024 0F22     		movs	r2, #15
 129 0026 BA18     		adds	r2, r7, r2
 130 0028 1278     		ldrb	r2, [r2]
 131 002a 9349     		ldr	r1, .L16
 132 002c 885C     		ldrb	r0, [r1, r2]
 133 002e 7A68     		ldr	r2, [r7, #4]
 134 0030 2221     		movs	r1, #34
 135 0032 D318     		adds	r3, r2, r3
 136 0034 5B18     		adds	r3, r3, r1
 137 0036 021C     		adds	r2, r0, #0
 138 0038 1A70     		strb	r2, [r3]
ARM GAS  C:\Users\jon\AppData\Local\Temp\cckKcl9z.s 			page 9


 319:Generated_Source\PSoC4/CapSense_MBX.c ****             #if (CapSense_IDAC_CNT == 2u)
 320:Generated_Source\PSoC4/CapSense_MBX.c ****                 mbx->outbox.compensationIDAC[i] = CapSense_compensationIDAC[i];
 139              		.loc 1 320 0 discriminator 3
 140 003a 0F23     		movs	r3, #15
 141 003c FB18     		adds	r3, r7, r3
 142 003e 1B78     		ldrb	r3, [r3]
 143 0040 0F22     		movs	r2, #15
 144 0042 BA18     		adds	r2, r7, r2
 145 0044 1278     		ldrb	r2, [r2]
 146 0046 8D49     		ldr	r1, .L16+4
 147 0048 885C     		ldrb	r0, [r1, r2]
 148 004a 7A68     		ldr	r2, [r7, #4]
 149 004c 2721     		movs	r1, #39
 150 004e D318     		adds	r3, r2, r3
 151 0050 5B18     		adds	r3, r3, r1
 152 0052 021C     		adds	r2, r0, #0
 153 0054 1A70     		strb	r2, [r3]
 316:Generated_Source\PSoC4/CapSense_MBX.c ****         {
 154              		.loc 1 316 0 discriminator 3
 155 0056 0F23     		movs	r3, #15
 156 0058 FB18     		adds	r3, r7, r3
 157 005a 1A78     		ldrb	r2, [r3]
 158 005c 0F23     		movs	r3, #15
 159 005e FB18     		adds	r3, r7, r3
 160 0060 0132     		adds	r2, r2, #1
 161 0062 1A70     		strb	r2, [r3]
 162              	.L4:
 316:Generated_Source\PSoC4/CapSense_MBX.c ****         {
 163              		.loc 1 316 0 is_stmt 0 discriminator 1
 164 0064 0F23     		movs	r3, #15
 165 0066 FB18     		adds	r3, r7, r3
 166 0068 1B78     		ldrb	r3, [r3]
 167 006a 042B     		cmp	r3, #4
 168 006c D7D9     		bls	.L5
 321:Generated_Source\PSoC4/CapSense_MBX.c ****             #endif /* (CapSense_IDAC_CNT == 2u) */
 322:Generated_Source\PSoC4/CapSense_MBX.c ****         }
 323:Generated_Source\PSoC4/CapSense_MBX.c ****     #endif /* ((CapSense_TUNING_METHOD == CapSense__TUNING_AUTO) || (0u != CapSense_AUTOCALIBRATION
 324:Generated_Source\PSoC4/CapSense_MBX.c **** 
 325:Generated_Source\PSoC4/CapSense_MBX.c ****     #if ( CapSense_TUNING_METHOD == CapSense__TUNING_AUTO )
 326:Generated_Source\PSoC4/CapSense_MBX.c ****         for(i = 0u; i < CapSense_TOTAL_SCANSLOT_COUNT; i++)
 169              		.loc 1 326 0 is_stmt 1
 170 006e 0F23     		movs	r3, #15
 171 0070 FB18     		adds	r3, r7, r3
 172 0072 0022     		movs	r2, #0
 173 0074 1A70     		strb	r2, [r3]
 174 0076 22E0     		b	.L6
 175              	.L7:
 327:Generated_Source\PSoC4/CapSense_MBX.c ****         {
 328:Generated_Source\PSoC4/CapSense_MBX.c ****             mbx->outbox.analogSwitchDivider[i] = CapSense_senseClkDividerVal[i];
 176              		.loc 1 328 0 discriminator 3
 177 0078 0F23     		movs	r3, #15
 178 007a FB18     		adds	r3, r7, r3
 179 007c 1B78     		ldrb	r3, [r3]
 180 007e 0F22     		movs	r2, #15
 181 0080 BA18     		adds	r2, r7, r2
 182 0082 1278     		ldrb	r2, [r2]
 183 0084 7E49     		ldr	r1, .L16+8
ARM GAS  C:\Users\jon\AppData\Local\Temp\cckKcl9z.s 			page 10


 184 0086 885C     		ldrb	r0, [r1, r2]
 185 0088 7A68     		ldr	r2, [r7, #4]
 186 008a 2C21     		movs	r1, #44
 187 008c D318     		adds	r3, r2, r3
 188 008e 5B18     		adds	r3, r3, r1
 189 0090 021C     		adds	r2, r0, #0
 190 0092 1A70     		strb	r2, [r3]
 329:Generated_Source\PSoC4/CapSense_MBX.c ****             mbx->outbox.modulatorDivider[i] = CapSense_sampleClkDividerVal[i];
 191              		.loc 1 329 0 discriminator 3
 192 0094 0F23     		movs	r3, #15
 193 0096 FB18     		adds	r3, r7, r3
 194 0098 1B78     		ldrb	r3, [r3]
 195 009a 0F22     		movs	r2, #15
 196 009c BA18     		adds	r2, r7, r2
 197 009e 1278     		ldrb	r2, [r2]
 198 00a0 7849     		ldr	r1, .L16+12
 199 00a2 885C     		ldrb	r0, [r1, r2]
 200 00a4 7A68     		ldr	r2, [r7, #4]
 201 00a6 3121     		movs	r1, #49
 202 00a8 D318     		adds	r3, r2, r3
 203 00aa 5B18     		adds	r3, r3, r1
 204 00ac 021C     		adds	r2, r0, #0
 205 00ae 1A70     		strb	r2, [r3]
 326:Generated_Source\PSoC4/CapSense_MBX.c ****         {
 206              		.loc 1 326 0 discriminator 3
 207 00b0 0F23     		movs	r3, #15
 208 00b2 FB18     		adds	r3, r7, r3
 209 00b4 1A78     		ldrb	r2, [r3]
 210 00b6 0F23     		movs	r3, #15
 211 00b8 FB18     		adds	r3, r7, r3
 212 00ba 0132     		adds	r2, r2, #1
 213 00bc 1A70     		strb	r2, [r3]
 214              	.L6:
 326:Generated_Source\PSoC4/CapSense_MBX.c ****         {
 215              		.loc 1 326 0 is_stmt 0 discriminator 1
 216 00be 0F23     		movs	r3, #15
 217 00c0 FB18     		adds	r3, r7, r3
 218 00c2 1B78     		ldrb	r3, [r3]
 219 00c4 042B     		cmp	r3, #4
 220 00c6 D7D9     		bls	.L7
 330:Generated_Source\PSoC4/CapSense_MBX.c ****         }
 331:Generated_Source\PSoC4/CapSense_MBX.c **** 
 332:Generated_Source\PSoC4/CapSense_MBX.c ****         /* Widget resolution, take to account TP and MB */
 333:Generated_Source\PSoC4/CapSense_MBX.c ****         for(i = 0u; i < CapSense_WIDGET_RESOLUTION_PARAMETERS_COUNT; i++)
 221              		.loc 1 333 0 is_stmt 1
 222 00c8 0F23     		movs	r3, #15
 223 00ca FB18     		adds	r3, r7, r3
 224 00cc 0022     		movs	r2, #0
 225 00ce 1A70     		strb	r2, [r3]
 226 00d0 33E0     		b	.L8
 227              	.L11:
 334:Generated_Source\PSoC4/CapSense_MBX.c ****         {
 335:Generated_Source\PSoC4/CapSense_MBX.c ****             tmpResolutionValue = (uint16)(CapSense_widgetResolution[i] >> CapSense_MSB_RESOLUTION_O
 228              		.loc 1 335 0
 229 00d2 0F23     		movs	r3, #15
 230 00d4 FB18     		adds	r3, r7, r3
 231 00d6 1A78     		ldrb	r2, [r3]
ARM GAS  C:\Users\jon\AppData\Local\Temp\cckKcl9z.s 			page 11


 232 00d8 6B4B     		ldr	r3, .L16+16
 233 00da 9200     		lsls	r2, r2, #2
 234 00dc D358     		ldr	r3, [r2, r3]
 235 00de 9A0D     		lsrs	r2, r3, #22
 236 00e0 0C23     		movs	r3, #12
 237 00e2 FB18     		adds	r3, r7, r3
 238 00e4 1A80     		strh	r2, [r3]
 336:Generated_Source\PSoC4/CapSense_MBX.c ****             tmpResolutionIndex = 0u;
 239              		.loc 1 336 0
 240 00e6 0E23     		movs	r3, #14
 241 00e8 FB18     		adds	r3, r7, r3
 242 00ea 0022     		movs	r2, #0
 243 00ec 1A70     		strb	r2, [r3]
 337:Generated_Source\PSoC4/CapSense_MBX.c **** 
 338:Generated_Source\PSoC4/CapSense_MBX.c ****             while(0u != tmpResolutionValue)
 244              		.loc 1 338 0
 245 00ee 0DE0     		b	.L9
 246              	.L10:
 339:Generated_Source\PSoC4/CapSense_MBX.c ****             {
 340:Generated_Source\PSoC4/CapSense_MBX.c ****                 tmpResolutionIndex++;
 247              		.loc 1 340 0
 248 00f0 0E23     		movs	r3, #14
 249 00f2 FB18     		adds	r3, r7, r3
 250 00f4 1A78     		ldrb	r2, [r3]
 251 00f6 0E23     		movs	r3, #14
 252 00f8 FB18     		adds	r3, r7, r3
 253 00fa 0132     		adds	r2, r2, #1
 254 00fc 1A70     		strb	r2, [r3]
 341:Generated_Source\PSoC4/CapSense_MBX.c ****                 tmpResolutionValue >>= 1u;
 255              		.loc 1 341 0
 256 00fe 0C23     		movs	r3, #12
 257 0100 FB18     		adds	r3, r7, r3
 258 0102 0C22     		movs	r2, #12
 259 0104 BA18     		adds	r2, r7, r2
 260 0106 1288     		ldrh	r2, [r2]
 261 0108 5208     		lsrs	r2, r2, #1
 262 010a 1A80     		strh	r2, [r3]
 263              	.L9:
 338:Generated_Source\PSoC4/CapSense_MBX.c ****             {
 264              		.loc 1 338 0
 265 010c 0C23     		movs	r3, #12
 266 010e FB18     		adds	r3, r7, r3
 267 0110 1B88     		ldrh	r3, [r3]
 268 0112 002B     		cmp	r3, #0
 269 0114 ECD1     		bne	.L10
 342:Generated_Source\PSoC4/CapSense_MBX.c ****             }
 343:Generated_Source\PSoC4/CapSense_MBX.c **** 
 344:Generated_Source\PSoC4/CapSense_MBX.c ****             mbx->outbox.scanResolution[i] = tmpResolutionIndex;
 270              		.loc 1 344 0 discriminator 2
 271 0116 0F23     		movs	r3, #15
 272 0118 FB18     		adds	r3, r7, r3
 273 011a 1B78     		ldrb	r3, [r3]
 274 011c 7A68     		ldr	r2, [r7, #4]
 275 011e 3621     		movs	r1, #54
 276 0120 D318     		adds	r3, r2, r3
 277 0122 5B18     		adds	r3, r3, r1
 278 0124 0E22     		movs	r2, #14
ARM GAS  C:\Users\jon\AppData\Local\Temp\cckKcl9z.s 			page 12


 279 0126 BA18     		adds	r2, r7, r2
 280 0128 1278     		ldrb	r2, [r2]
 281 012a 1A70     		strb	r2, [r3]
 333:Generated_Source\PSoC4/CapSense_MBX.c ****         {
 282              		.loc 1 333 0 discriminator 2
 283 012c 0F23     		movs	r3, #15
 284 012e FB18     		adds	r3, r7, r3
 285 0130 1A78     		ldrb	r2, [r3]
 286 0132 0F23     		movs	r3, #15
 287 0134 FB18     		adds	r3, r7, r3
 288 0136 0132     		adds	r2, r2, #1
 289 0138 1A70     		strb	r2, [r3]
 290              	.L8:
 333:Generated_Source\PSoC4/CapSense_MBX.c ****         {
 291              		.loc 1 333 0 is_stmt 0 discriminator 1
 292 013a 0F23     		movs	r3, #15
 293 013c FB18     		adds	r3, r7, r3
 294 013e 1B78     		ldrb	r3, [r3]
 295 0140 002B     		cmp	r3, #0
 296 0142 C6D0     		beq	.L11
 345:Generated_Source\PSoC4/CapSense_MBX.c ****         }
 346:Generated_Source\PSoC4/CapSense_MBX.c **** 
 347:Generated_Source\PSoC4/CapSense_MBX.c ****         #if(0u != CapSense_CSHL_API_GENERATE)
 348:Generated_Source\PSoC4/CapSense_MBX.c ****             /* Parameters are changed in run time */
 349:Generated_Source\PSoC4/CapSense_MBX.c ****             for(i = 0u; i < CapSense_WIDGET_CSHL_PARAMETERS_COUNT; i++)
 297              		.loc 1 349 0 is_stmt 1
 298 0144 0F23     		movs	r3, #15
 299 0146 FB18     		adds	r3, r7, r3
 300 0148 0022     		movs	r2, #0
 301 014a 1A70     		strb	r2, [r3]
 302 014c 2AE0     		b	.L12
 303              	.L13:
 350:Generated_Source\PSoC4/CapSense_MBX.c ****             {
 351:Generated_Source\PSoC4/CapSense_MBX.c ****                 mbx->outbox.fingerThreshold[i] = CapSense_fingerThreshold[i];
 304              		.loc 1 351 0 discriminator 3
 305 014e 0F23     		movs	r3, #15
 306 0150 FB18     		adds	r3, r7, r3
 307 0152 1B78     		ldrb	r3, [r3]
 308 0154 0F22     		movs	r2, #15
 309 0156 BA18     		adds	r2, r7, r2
 310 0158 1278     		ldrb	r2, [r2]
 311 015a 4C49     		ldr	r1, .L16+20
 312 015c 895C     		ldrb	r1, [r1, r2]
 313 015e 7A68     		ldr	r2, [r7, #4]
 314 0160 D318     		adds	r3, r2, r3
 315 0162 0A1C     		adds	r2, r1, #0
 316 0164 9A71     		strb	r2, [r3, #6]
 352:Generated_Source\PSoC4/CapSense_MBX.c ****                 mbx->outbox.noiseThreshold[i]  = CapSense_noiseThreshold[i];
 317              		.loc 1 352 0 discriminator 3
 318 0166 0F23     		movs	r3, #15
 319 0168 FB18     		adds	r3, r7, r3
 320 016a 1B78     		ldrb	r3, [r3]
 321 016c 0F22     		movs	r2, #15
 322 016e BA18     		adds	r2, r7, r2
 323 0170 1278     		ldrb	r2, [r2]
 324 0172 4749     		ldr	r1, .L16+24
 325 0174 895C     		ldrb	r1, [r1, r2]
ARM GAS  C:\Users\jon\AppData\Local\Temp\cckKcl9z.s 			page 13


 326 0176 7A68     		ldr	r2, [r7, #4]
 327 0178 D318     		adds	r3, r2, r3
 328 017a 0A1C     		adds	r2, r1, #0
 329 017c DA71     		strb	r2, [r3, #7]
 353:Generated_Source\PSoC4/CapSense_MBX.c ****                 mbx->outbox.hysteresis[i]      = CapSense_hysteresis[i];
 330              		.loc 1 353 0 discriminator 3
 331 017e 0F23     		movs	r3, #15
 332 0180 FB18     		adds	r3, r7, r3
 333 0182 1B78     		ldrb	r3, [r3]
 334 0184 0F22     		movs	r2, #15
 335 0186 BA18     		adds	r2, r7, r2
 336 0188 1278     		ldrb	r2, [r2]
 337 018a 4249     		ldr	r1, .L16+28
 338 018c 895C     		ldrb	r1, [r1, r2]
 339 018e 7A68     		ldr	r2, [r7, #4]
 340 0190 D318     		adds	r3, r2, r3
 341 0192 0A1C     		adds	r2, r1, #0
 342 0194 1A72     		strb	r2, [r3, #8]
 349:Generated_Source\PSoC4/CapSense_MBX.c ****             {
 343              		.loc 1 349 0 discriminator 3
 344 0196 0F23     		movs	r3, #15
 345 0198 FB18     		adds	r3, r7, r3
 346 019a 1A78     		ldrb	r2, [r3]
 347 019c 0F23     		movs	r3, #15
 348 019e FB18     		adds	r3, r7, r3
 349 01a0 0132     		adds	r2, r2, #1
 350 01a2 1A70     		strb	r2, [r3]
 351              	.L12:
 349:Generated_Source\PSoC4/CapSense_MBX.c ****             {
 352              		.loc 1 349 0 is_stmt 0 discriminator 1
 353 01a4 0F23     		movs	r3, #15
 354 01a6 FB18     		adds	r3, r7, r3
 355 01a8 1B78     		ldrb	r3, [r3]
 356 01aa 002B     		cmp	r3, #0
 357 01ac CFD0     		beq	.L13
 354:Generated_Source\PSoC4/CapSense_MBX.c ****             }
 355:Generated_Source\PSoC4/CapSense_MBX.c ****         #endif /* (0u != CapSense_CSHL_API_GENERATE) */
 356:Generated_Source\PSoC4/CapSense_MBX.c **** 
 357:Generated_Source\PSoC4/CapSense_MBX.c ****     #endif /* (CapSense_TUNING_METHOD == CapSense__TUNING_AUTO) */
 358:Generated_Source\PSoC4/CapSense_MBX.c **** 
 359:Generated_Source\PSoC4/CapSense_MBX.c **** 
 360:Generated_Source\PSoC4/CapSense_MBX.c ****     /* Copy all data - Raw, Base, Signal, OnMask */
 361:Generated_Source\PSoC4/CapSense_MBX.c ****     for(i = 0u; i < CapSense_TOTAL_SENSOR_COUNT; i++)
 358              		.loc 1 361 0 is_stmt 1
 359 01ae 0F23     		movs	r3, #15
 360 01b0 FB18     		adds	r3, r7, r3
 361 01b2 0022     		movs	r2, #0
 362 01b4 1A70     		strb	r2, [r3]
 363 01b6 52E0     		b	.L14
 364              	.L15:
 362:Generated_Source\PSoC4/CapSense_MBX.c ****     {
 363:Generated_Source\PSoC4/CapSense_MBX.c ****         mbx->outbox.rawData[i]  = CapSense_sensorRaw[i];
 365              		.loc 1 363 0 discriminator 3
 366 01b8 0F23     		movs	r3, #15
 367 01ba FB18     		adds	r3, r7, r3
 368 01bc 1B78     		ldrb	r3, [r3]
 369 01be 0F22     		movs	r2, #15
ARM GAS  C:\Users\jon\AppData\Local\Temp\cckKcl9z.s 			page 14


 370 01c0 BA18     		adds	r2, r7, r2
 371 01c2 1178     		ldrb	r1, [r2]
 372 01c4 344A     		ldr	r2, .L16+32
 373 01c6 4900     		lsls	r1, r1, #1
 374 01c8 8A5A     		ldrh	r2, [r1, r2]
 375 01ca 7968     		ldr	r1, [r7, #4]
 376 01cc 0433     		adds	r3, r3, #4
 377 01ce 5B00     		lsls	r3, r3, #1
 378 01d0 CB18     		adds	r3, r1, r3
 379 01d2 FF21     		movs	r1, #255
 380 01d4 1140     		ands	r1, r2
 381 01d6 0C00     		movs	r4, r1
 382 01d8 9979     		ldrb	r1, [r3, #6]
 383 01da 0020     		movs	r0, #0
 384 01dc 0140     		ands	r1, r0
 385 01de 081C     		adds	r0, r1, #0
 386 01e0 211C     		adds	r1, r4, #0
 387 01e2 0143     		orrs	r1, r0
 388 01e4 9971     		strb	r1, [r3, #6]
 389 01e6 120A     		lsrs	r2, r2, #8
 390 01e8 90B2     		uxth	r0, r2
 391 01ea DA79     		ldrb	r2, [r3, #7]
 392 01ec 0021     		movs	r1, #0
 393 01ee 0A40     		ands	r2, r1
 394 01f0 111C     		adds	r1, r2, #0
 395 01f2 021C     		adds	r2, r0, #0
 396 01f4 0A43     		orrs	r2, r1
 397 01f6 DA71     		strb	r2, [r3, #7]
 364:Generated_Source\PSoC4/CapSense_MBX.c ****         #if(0u != CapSense_CSHL_API_GENERATE)
 365:Generated_Source\PSoC4/CapSense_MBX.c ****             mbx->outbox.baseLine[i] = CapSense_sensorBaseline[i];
 398              		.loc 1 365 0 discriminator 3
 399 01f8 0F23     		movs	r3, #15
 400 01fa FB18     		adds	r3, r7, r3
 401 01fc 1B78     		ldrb	r3, [r3]
 402 01fe 0F22     		movs	r2, #15
 403 0200 BA18     		adds	r2, r7, r2
 404 0202 1178     		ldrb	r1, [r2]
 405 0204 254A     		ldr	r2, .L16+36
 406 0206 4900     		lsls	r1, r1, #1
 407 0208 8A5A     		ldrh	r2, [r1, r2]
 408 020a 7968     		ldr	r1, [r7, #4]
 409 020c 0833     		adds	r3, r3, #8
 410 020e 5B00     		lsls	r3, r3, #1
 411 0210 CB18     		adds	r3, r1, r3
 412 0212 FF21     		movs	r1, #255
 413 0214 1140     		ands	r1, r2
 414 0216 0C00     		movs	r4, r1
 415 0218 197A     		ldrb	r1, [r3, #8]
 416 021a 0020     		movs	r0, #0
 417 021c 0140     		ands	r1, r0
 418 021e 081C     		adds	r0, r1, #0
 419 0220 211C     		adds	r1, r4, #0
 420 0222 0143     		orrs	r1, r0
 421 0224 1972     		strb	r1, [r3, #8]
 422 0226 120A     		lsrs	r2, r2, #8
 423 0228 90B2     		uxth	r0, r2
 424 022a 5A7A     		ldrb	r2, [r3, #9]
ARM GAS  C:\Users\jon\AppData\Local\Temp\cckKcl9z.s 			page 15


 425 022c 0021     		movs	r1, #0
 426 022e 0A40     		ands	r2, r1
 427 0230 111C     		adds	r1, r2, #0
 428 0232 021C     		adds	r2, r0, #0
 429 0234 0A43     		orrs	r2, r1
 430 0236 5A72     		strb	r2, [r3, #9]
 366:Generated_Source\PSoC4/CapSense_MBX.c ****             #if (CapSense_SIGNAL_SIZE == CapSense_SIGNAL_SIZE_UINT8)
 367:Generated_Source\PSoC4/CapSense_MBX.c ****                 mbx->outbox.sensorSignal[i]   = (uint8)CapSense_sensorSignal[i];
 431              		.loc 1 367 0 discriminator 3
 432 0238 0F23     		movs	r3, #15
 433 023a FB18     		adds	r3, r7, r3
 434 023c 1B78     		ldrb	r3, [r3]
 435 023e 0F22     		movs	r2, #15
 436 0240 BA18     		adds	r2, r7, r2
 437 0242 1278     		ldrb	r2, [r2]
 438 0244 1649     		ldr	r1, .L16+40
 439 0246 895C     		ldrb	r1, [r1, r2]
 440 0248 7A68     		ldr	r2, [r7, #4]
 441 024a D318     		adds	r3, r2, r3
 442 024c 0A1C     		adds	r2, r1, #0
 443 024e 5A72     		strb	r2, [r3, #9]
 361:Generated_Source\PSoC4/CapSense_MBX.c ****     {
 444              		.loc 1 361 0 discriminator 3
 445 0250 0F23     		movs	r3, #15
 446 0252 FB18     		adds	r3, r7, r3
 447 0254 1A78     		ldrb	r2, [r3]
 448 0256 0F23     		movs	r3, #15
 449 0258 FB18     		adds	r3, r7, r3
 450 025a 0132     		adds	r2, r2, #1
 451 025c 1A70     		strb	r2, [r3]
 452              	.L14:
 361:Generated_Source\PSoC4/CapSense_MBX.c ****     {
 453              		.loc 1 361 0 is_stmt 0 discriminator 1
 454 025e 0F23     		movs	r3, #15
 455 0260 FB18     		adds	r3, r7, r3
 456 0262 1B78     		ldrb	r3, [r3]
 457 0264 042B     		cmp	r3, #4
 458 0266 A7D9     		bls	.L15
 368:Generated_Source\PSoC4/CapSense_MBX.c ****             #else
 369:Generated_Source\PSoC4/CapSense_MBX.c ****                 mbx->outbox.sensorSignal[i]   = (uint16)CapSense_sensorSignal[i];
 370:Generated_Source\PSoC4/CapSense_MBX.c ****             #endif  /* (CapSense_SIGNAL_SIZE == CapSense_SIGNAL_SIZE_UINT8) */
 371:Generated_Source\PSoC4/CapSense_MBX.c ****         #endif /* (0u != CapSense_CSHL_API_GENERATE) */
 372:Generated_Source\PSoC4/CapSense_MBX.c ****     }
 373:Generated_Source\PSoC4/CapSense_MBX.c **** 
 374:Generated_Source\PSoC4/CapSense_MBX.c ****     /* Set busy flag */
 375:Generated_Source\PSoC4/CapSense_MBX.c ****     mbx->type = CapSense_BUSY_FLAG;
 459              		.loc 1 375 0 is_stmt 1
 460 0268 7B68     		ldr	r3, [r7, #4]
 461 026a 8422     		movs	r2, #132
 462 026c 1A70     		strb	r2, [r3]
 376:Generated_Source\PSoC4/CapSense_MBX.c **** }
 463              		.loc 1 376 0
 464 026e C046     		nop
 465 0270 BD46     		mov	sp, r7
 466 0272 05B0     		add	sp, sp, #20
 467              		@ sp needed
 468 0274 90BD     		pop	{r4, r7, pc}
ARM GAS  C:\Users\jon\AppData\Local\Temp\cckKcl9z.s 			page 16


 469              	.L17:
 470 0276 C046     		.align	2
 471              	.L16:
 472 0278 00000000 		.word	CapSense_modulationIDAC
 473 027c 00000000 		.word	CapSense_compensationIDAC
 474 0280 00000000 		.word	CapSense_senseClkDividerVal
 475 0284 00000000 		.word	CapSense_sampleClkDividerVal
 476 0288 00000000 		.word	CapSense_widgetResolution
 477 028c 00000000 		.word	CapSense_fingerThreshold
 478 0290 00000000 		.word	CapSense_noiseThreshold
 479 0294 00000000 		.word	CapSense_hysteresis
 480 0298 00000000 		.word	CapSense_sensorRaw
 481 029c 00000000 		.word	CapSense_sensorBaseline
 482 02a0 00000000 		.word	CapSense_sensorSignal
 483              		.cfi_endproc
 484              	.LFE33:
 485              		.size	CapSense_PostMessage, .-CapSense_PostMessage
 486              		.text
 487              	.Letext0:
 488              		.file 2 "Generated_Source\\PSoC4\\cytypes.h"
 489              		.file 3 "Generated_Source\\PSoC4\\CapSense_MBX.h"
 490              		.file 4 "Generated_Source\\PSoC4\\CapSense.h"
 491              		.file 5 "Generated_Source\\PSoC4\\CapSense_CSHL.h"