ARM GAS  C:\Users\jon\AppData\Local\Temp\ccMQaWNJ.s 			page 1


   1              		.syntax unified
   2              		.cpu cortex-m0
   3              		.fpu softvfp
   4              		.eabi_attribute 20, 1
   5              		.eabi_attribute 21, 1
   6              		.eabi_attribute 23, 3
   7              		.eabi_attribute 24, 1
   8              		.eabi_attribute 25, 1
   9              		.eabi_attribute 26, 1
  10              		.eabi_attribute 30, 6
  11              		.eabi_attribute 34, 0
  12              		.eabi_attribute 18, 4
  13              		.thumb
  14              		.syntax unified
  15              		.file	"CapSense_SMS.c"
  16              		.text
  17              	.Ltext0:
  18              		.cfi_sections	.debug_frame
  19              		.global	CapSense_prescalerTable
  20              		.section	.rodata
  21              		.align	2
  22              		.type	CapSense_prescalerTable, %object
  23              		.size	CapSense_prescalerTable, 16
  24              	CapSense_prescalerTable:
  25 0000 01       		.byte	1
  26 0001 01       		.byte	1
  27 0002 01       		.byte	1
  28 0003 02       		.byte	2
  29 0004 02       		.byte	2
  30 0005 02       		.byte	2
  31 0006 02       		.byte	2
  32 0007 04       		.byte	4
  33 0008 04       		.byte	4
  34 0009 04       		.byte	4
  35 000a 04       		.byte	4
  36 000b 04       		.byte	4
  37 000c 04       		.byte	4
  38 000d 04       		.byte	4
  39 000e 04       		.byte	4
  40 000f 04       		.byte	4
  41              		.comm	CapSense_noiseEnvelopeTbl,5,4
  42              		.comm	CapSense_runningDifferenceTbl,5,4
  43              		.comm	CapSense_signRegisterTbl,5,4
  44              		.comm	CapSense_sampleMinTbl,10,4
  45              		.comm	CapSense_sampleMaxTbl,10,4
  46              		.comm	CapSense_previousSampleTbl,10,4
  47              		.comm	CapSense_kValueTbl,5,4
  48              		.global	CapSense_sensorSensitivity
  49              		.data
  50              		.align	2
  51              		.type	CapSense_sensorSensitivity, %object
  52              		.size	CapSense_sensorSensitivity, 5
  53              	CapSense_sensorSensitivity:
  54 0000 01       		.byte	1
  55 0001 01       		.byte	1
  56 0002 01       		.byte	1
  57 0003 01       		.byte	1
ARM GAS  C:\Users\jon\AppData\Local\Temp\ccMQaWNJ.s 			page 2


  58 0004 01       		.byte	1
  59              		.comm	CapSense_config,12,4
  60              		.global	CapSense_configPointers
  61              		.section	.rodata
  62              		.align	2
  63              		.type	CapSense_configPointers, %object
  64              		.size	CapSense_configPointers, 92
  65              	CapSense_configPointers:
  66 0010 00000000 		.word	CapSense_modulationIDAC
  67 0014 00000000 		.word	CapSense_compensationIDAC
  68 0018 00000000 		.word	CapSense_sensorSensitivity
  69 001c 00000000 		.word	CapSense_senseClkDividerVal
  70 0020 00000000 		.word	CapSense_sampleClkDividerVal
  71 0024 00000000 		.word	CapSense_widgetNumber
  72 0028 00000000 		.word	CapSense_widgetResolution
  73 002c 00000000 		.word	CapSense_noiseEnvelopeTbl
  74 0030 00000000 		.word	CapSense_runningDifferenceTbl
  75 0034 00000000 		.word	CapSense_signRegisterTbl
  76 0038 00000000 		.word	CapSense_sampleMinTbl
  77 003c 00000000 		.word	CapSense_sampleMaxTbl
  78 0040 00000000 		.word	CapSense_previousSampleTbl
  79 0044 00000000 		.word	CapSense_kValueTbl
  80 0048 00000000 		.word	CapSense_scanSpeedTbl
  81 004c 00000000 		.word	CapSense_prescalerTable
  82 0050 00000000 		.word	CapSense_rawDataIndex
  83 0054 00000000 		.word	CapSense_numberOfSensors
  84 0058 00000000 		.word	CapSense_GetSensorRaw
  85 005c 00000000 		.word	CapSense_PreScan
  86 0060 00000000 		.word	CapSense_ReadSensorRaw
  87 0064 00000000 		.word	CapSense_GetBitValue
  88 0068 00000000 		.word	CapSense_SetBitValue
  89              		.section	.text.CapSense_AutoTune,"ax",%progbits
  90              		.align	2
  91              		.global	CapSense_AutoTune
  92              		.code	16
  93              		.thumb_func
  94              		.type	CapSense_AutoTune, %function
  95              	CapSense_AutoTune:
  96              	.LFB32:
  97              		.file 1 "Generated_Source\\PSoC4\\CapSense_SMS.c"
   1:Generated_Source\PSoC4/CapSense_SMS.c **** /*******************************************************************************
   2:Generated_Source\PSoC4/CapSense_SMS.c **** * File Name: CapSense_SMS.c
   3:Generated_Source\PSoC4/CapSense_SMS.c **** * Version 2.60
   4:Generated_Source\PSoC4/CapSense_SMS.c **** *
   5:Generated_Source\PSoC4/CapSense_SMS.c **** * Description:
   6:Generated_Source\PSoC4/CapSense_SMS.c **** *  This file provides the source code of wrapper between CapSense CSD component
   7:Generated_Source\PSoC4/CapSense_SMS.c **** *  and Auto Tuning library.
   8:Generated_Source\PSoC4/CapSense_SMS.c **** *
   9:Generated_Source\PSoC4/CapSense_SMS.c **** * Note:
  10:Generated_Source\PSoC4/CapSense_SMS.c **** *
  11:Generated_Source\PSoC4/CapSense_SMS.c **** ********************************************************************************
  12:Generated_Source\PSoC4/CapSense_SMS.c **** * Copyright 2013-2016, Cypress Semiconductor Corporation.  All rights reserved.
  13:Generated_Source\PSoC4/CapSense_SMS.c **** * You may use this file only in accordance with the license, terms, conditions,
  14:Generated_Source\PSoC4/CapSense_SMS.c **** * disclaimers, and limitations in the end user license agreement accompanying
  15:Generated_Source\PSoC4/CapSense_SMS.c **** * the software package with which this file was provided.
  16:Generated_Source\PSoC4/CapSense_SMS.c **** *******************************************************************************/
  17:Generated_Source\PSoC4/CapSense_SMS.c **** 
ARM GAS  C:\Users\jon\AppData\Local\Temp\ccMQaWNJ.s 			page 3


  18:Generated_Source\PSoC4/CapSense_SMS.c **** #include "CapSense_SMS.h"
  19:Generated_Source\PSoC4/CapSense_SMS.c **** #include "CapSense_PVT.h"
  20:Generated_Source\PSoC4/CapSense_SMS.c **** 
  21:Generated_Source\PSoC4/CapSense_SMS.c **** #include "cytypes.h"
  22:Generated_Source\PSoC4/CapSense_SMS.c **** 
  23:Generated_Source\PSoC4/CapSense_SMS.c **** #if (CapSense_TUNING_METHOD == CapSense__TUNING_AUTO)
  24:Generated_Source\PSoC4/CapSense_SMS.c **** 
  25:Generated_Source\PSoC4/CapSense_SMS.c **** 
  26:Generated_Source\PSoC4/CapSense_SMS.c **** /*  Real Charge Divider values */
  27:Generated_Source\PSoC4/CapSense_SMS.c **** #if ((0u != CapSense_IS_M0S8PERI_BLOCK) && (0u == CY_PSOC4_4000))
  28:Generated_Source\PSoC4/CapSense_SMS.c ****     /*  Dividers are not chained */
  29:Generated_Source\PSoC4/CapSense_SMS.c ****     #if (CYDEV_BCLK__HFCLK__MHZ > 24u)
  30:Generated_Source\PSoC4/CapSense_SMS.c ****         const uint8 CapSense_prescalerTable[CapSense_PRESCALERS_TBL_SIZE] = {
  31:Generated_Source\PSoC4/CapSense_SMS.c ****             4u,     4u,     4u,    8u,    8u,    8u,    8u,    16u,    16u,    16u,    16u,    16u,
  32:Generated_Source\PSoC4/CapSense_SMS.c ****         };
  33:Generated_Source\PSoC4/CapSense_SMS.c ****     #elif (CYDEV_BCLK__HFCLK__MHZ >12u)
  34:Generated_Source\PSoC4/CapSense_SMS.c ****         const uint8 CapSense_prescalerTable[CapSense_PRESCALERS_TBL_SIZE] = {
  35:Generated_Source\PSoC4/CapSense_SMS.c ****             2u,     2u,     2u,    4u,    4u,    4u,    4u,    8u,    8u,    8u,    8u,    8u,    8
  36:Generated_Source\PSoC4/CapSense_SMS.c ****         };
  37:Generated_Source\PSoC4/CapSense_SMS.c ****     #else   /* (CYDEV_BCLK__HFCLK__MHZ > 12u) */
  38:Generated_Source\PSoC4/CapSense_SMS.c ****         const uint8 CapSense_prescalerTable[CapSense_PRESCALERS_TBL_SIZE] = {
  39:Generated_Source\PSoC4/CapSense_SMS.c ****             1u,     1u,     1u,    2u,    2u,    2u,    2u,    4u,    4u,    4u,    4u,    4u,    4
  40:Generated_Source\PSoC4/CapSense_SMS.c ****         };
  41:Generated_Source\PSoC4/CapSense_SMS.c ****     #endif /* (CYDEV_BCLK__HFCLK__MHZ > 24u) */
  42:Generated_Source\PSoC4/CapSense_SMS.c **** 
  43:Generated_Source\PSoC4/CapSense_SMS.c **** #elif (0u != CapSense_IS_M0S8PERI_BLOCK)
  44:Generated_Source\PSoC4/CapSense_SMS.c ****     /*  Dividers are not chained (PSoC 4000) */
  45:Generated_Source\PSoC4/CapSense_SMS.c ****     #if (CYDEV_BCLK__HFCLK__MHZ >= 12u)
  46:Generated_Source\PSoC4/CapSense_SMS.c ****         const uint8 CapSense_prescalerTable[CapSense_PRESCALERS_TBL_SIZE] = {
  47:Generated_Source\PSoC4/CapSense_SMS.c ****             1u,     1u,     1u,    2u,    2u,    2u,    2u,    4u,    4u,    4u,    4u,    4u,    4
  48:Generated_Source\PSoC4/CapSense_SMS.c ****         };
  49:Generated_Source\PSoC4/CapSense_SMS.c **** 
  50:Generated_Source\PSoC4/CapSense_SMS.c ****     #elif (CYDEV_BCLK__HFCLK__MHZ >= 6u)
  51:Generated_Source\PSoC4/CapSense_SMS.c ****         const uint8 CapSense_prescalerTable[CapSense_PRESCALERS_TBL_SIZE] = {
  52:Generated_Source\PSoC4/CapSense_SMS.c ****             1u,     1u,     1u,    1u,    1u,    1u,    1u,    2u,    2u,    2u,    2u,    2u,    2
  53:Generated_Source\PSoC4/CapSense_SMS.c ****         };
  54:Generated_Source\PSoC4/CapSense_SMS.c ****     #else
  55:Generated_Source\PSoC4/CapSense_SMS.c ****         const uint8 CapSense_prescalerTable[CapSense_PRESCALERS_TBL_SIZE] = {
  56:Generated_Source\PSoC4/CapSense_SMS.c ****             1u,     1u,     1u,    1u,    1u,    1u,    1u,    1u,    1u,    1u,    1u,    1u,    1
  57:Generated_Source\PSoC4/CapSense_SMS.c ****         };
  58:Generated_Source\PSoC4/CapSense_SMS.c ****     #endif /* (CYDEV_BCLK__HFCLK__MHZ > 12u) */
  59:Generated_Source\PSoC4/CapSense_SMS.c **** 
  60:Generated_Source\PSoC4/CapSense_SMS.c **** #else
  61:Generated_Source\PSoC4/CapSense_SMS.c ****     /*  Dividers are chained (PSoC 4100, PSoC 4200) */
  62:Generated_Source\PSoC4/CapSense_SMS.c ****     #if (CYDEV_BCLK__HFCLK__MHZ > 24u)
  63:Generated_Source\PSoC4/CapSense_SMS.c ****         const uint8 CapSense_prescalerTable[CapSense_PRESCALERS_TBL_SIZE] = {
  64:Generated_Source\PSoC4/CapSense_SMS.c ****             2u,     2u,     2u,    4u,    4u,    4u,    4u,    8u,    8u,    8u,    8u,    8u,    8
  65:Generated_Source\PSoC4/CapSense_SMS.c ****         };
  66:Generated_Source\PSoC4/CapSense_SMS.c **** 
  67:Generated_Source\PSoC4/CapSense_SMS.c ****     #elif (CYDEV_BCLK__HFCLK__MHZ >12u)
  68:Generated_Source\PSoC4/CapSense_SMS.c ****         const uint8 CapSense_prescalerTable[CapSense_PRESCALERS_TBL_SIZE] = {
  69:Generated_Source\PSoC4/CapSense_SMS.c ****             1u,     1u,     1u,    2u,    2u,    2u,    2u,    4u,    4u,    4u,    4u,    4u,    4
  70:Generated_Source\PSoC4/CapSense_SMS.c ****         };
  71:Generated_Source\PSoC4/CapSense_SMS.c ****     #else   /* (CYDEV_BCLK__HFCLK__MHZ > 12u) */
  72:Generated_Source\PSoC4/CapSense_SMS.c ****         const uint8 CapSense_prescalerTable[CapSense_PRESCALERS_TBL_SIZE] = {
  73:Generated_Source\PSoC4/CapSense_SMS.c ****             1u,     1u,     1u,    1u,    1u,    1u,    1u,    2u,    2u,    2u,    2u,    2u,    2
  74:Generated_Source\PSoC4/CapSense_SMS.c ****         };
ARM GAS  C:\Users\jon\AppData\Local\Temp\ccMQaWNJ.s 			page 4


  75:Generated_Source\PSoC4/CapSense_SMS.c ****     #endif /* (CYDEV_BCLK__HFCLK__MHZ > 24u) */
  76:Generated_Source\PSoC4/CapSense_SMS.c **** #endif /* ((0u != CapSense_IS_M0S8PERI_BLOCK) && (0u == CY_PSOC4_4000)) */
  77:Generated_Source\PSoC4/CapSense_SMS.c **** 
  78:Generated_Source\PSoC4/CapSense_SMS.c **** 
  79:Generated_Source\PSoC4/CapSense_SMS.c **** uint8 CapSense_noiseEnvelopeTbl[CapSense_TOTAL_SENSOR_COUNT];
  80:Generated_Source\PSoC4/CapSense_SMS.c **** uint8 CapSense_runningDifferenceTbl[CapSense_TOTAL_SENSOR_COUNT];
  81:Generated_Source\PSoC4/CapSense_SMS.c **** uint8 CapSense_signRegisterTbl[CapSense_TOTAL_SENSOR_COUNT];
  82:Generated_Source\PSoC4/CapSense_SMS.c **** uint16 CapSense_sampleMinTbl[CapSense_TOTAL_SENSOR_COUNT];
  83:Generated_Source\PSoC4/CapSense_SMS.c **** uint16 CapSense_sampleMaxTbl[CapSense_TOTAL_SENSOR_COUNT];
  84:Generated_Source\PSoC4/CapSense_SMS.c **** uint16 CapSense_previousSampleTbl[CapSense_TOTAL_SENSOR_COUNT];
  85:Generated_Source\PSoC4/CapSense_SMS.c **** uint8 CapSense_kValueTbl[CapSense_TOTAL_SENSOR_COUNT];
  86:Generated_Source\PSoC4/CapSense_SMS.c **** 
  87:Generated_Source\PSoC4/CapSense_SMS.c **** uint8 CapSense_sensorSensitivity[] = {
  88:Generated_Source\PSoC4/CapSense_SMS.c ****     1u, 1u, 1u, 1u, 1u, 
  89:Generated_Source\PSoC4/CapSense_SMS.c **** };
  90:Generated_Source\PSoC4/CapSense_SMS.c **** 
  91:Generated_Source\PSoC4/CapSense_SMS.c **** CapSense_CONFIG_TYPE_P4_v2_60 CapSense_config;
  92:Generated_Source\PSoC4/CapSense_SMS.c **** CapSense_CONFIG_TYPE_POINTERS_P4_v2_60 const CapSense_configPointers = {
  93:Generated_Source\PSoC4/CapSense_SMS.c ****     CapSense_modulationIDAC,
  94:Generated_Source\PSoC4/CapSense_SMS.c ****     CapSense_compensationIDAC,
  95:Generated_Source\PSoC4/CapSense_SMS.c ****     CapSense_sensorSensitivity,
  96:Generated_Source\PSoC4/CapSense_SMS.c ****     CapSense_senseClkDividerVal,
  97:Generated_Source\PSoC4/CapSense_SMS.c ****     CapSense_sampleClkDividerVal,
  98:Generated_Source\PSoC4/CapSense_SMS.c ****     CapSense_widgetNumber,
  99:Generated_Source\PSoC4/CapSense_SMS.c ****     CapSense_widgetResolution,
 100:Generated_Source\PSoC4/CapSense_SMS.c ****     CapSense_noiseEnvelopeTbl,
 101:Generated_Source\PSoC4/CapSense_SMS.c ****     CapSense_runningDifferenceTbl,
 102:Generated_Source\PSoC4/CapSense_SMS.c ****     CapSense_signRegisterTbl,
 103:Generated_Source\PSoC4/CapSense_SMS.c ****     CapSense_sampleMinTbl,
 104:Generated_Source\PSoC4/CapSense_SMS.c ****     CapSense_sampleMaxTbl,
 105:Generated_Source\PSoC4/CapSense_SMS.c ****     CapSense_previousSampleTbl,
 106:Generated_Source\PSoC4/CapSense_SMS.c ****     CapSense_kValueTbl,
 107:Generated_Source\PSoC4/CapSense_SMS.c ****     CapSense_scanSpeedTbl,
 108:Generated_Source\PSoC4/CapSense_SMS.c ****     CapSense_prescalerTable,
 109:Generated_Source\PSoC4/CapSense_SMS.c ****     (const uint8  *)CapSense_rawDataIndex,
 110:Generated_Source\PSoC4/CapSense_SMS.c ****     (const uint8  *)CapSense_numberOfSensors,
 111:Generated_Source\PSoC4/CapSense_SMS.c ****     &CapSense_GetSensorRaw,
 112:Generated_Source\PSoC4/CapSense_SMS.c ****     &CapSense_PreScan,
 113:Generated_Source\PSoC4/CapSense_SMS.c ****     &CapSense_ReadSensorRaw,
 114:Generated_Source\PSoC4/CapSense_SMS.c ****     &CapSense_GetBitValue,
 115:Generated_Source\PSoC4/CapSense_SMS.c ****     &CapSense_SetBitValue
 116:Generated_Source\PSoC4/CapSense_SMS.c **** };
 117:Generated_Source\PSoC4/CapSense_SMS.c **** 
 118:Generated_Source\PSoC4/CapSense_SMS.c **** 
 119:Generated_Source\PSoC4/CapSense_SMS.c **** /*******************************************************************************
 120:Generated_Source\PSoC4/CapSense_SMS.c **** * Function Name: CapSense_AutoTune
 121:Generated_Source\PSoC4/CapSense_SMS.c **** ********************************************************************************
 122:Generated_Source\PSoC4/CapSense_SMS.c **** *
 123:Generated_Source\PSoC4/CapSense_SMS.c **** * Summary:
 124:Generated_Source\PSoC4/CapSense_SMS.c **** *  Provides the tuning procedure for all sensors.
 125:Generated_Source\PSoC4/CapSense_SMS.c **** *
 126:Generated_Source\PSoC4/CapSense_SMS.c **** * Parameters:
 127:Generated_Source\PSoC4/CapSense_SMS.c **** *  None
 128:Generated_Source\PSoC4/CapSense_SMS.c **** *
 129:Generated_Source\PSoC4/CapSense_SMS.c **** * Return:
 130:Generated_Source\PSoC4/CapSense_SMS.c **** *  None
 131:Generated_Source\PSoC4/CapSense_SMS.c **** *
ARM GAS  C:\Users\jon\AppData\Local\Temp\ccMQaWNJ.s 			page 5


 132:Generated_Source\PSoC4/CapSense_SMS.c **** * Global Variables:
 133:Generated_Source\PSoC4/CapSense_SMS.c **** *   CapSense_config: the structure which contains configuration parameters
 134:Generated_Source\PSoC4/CapSense_SMS.c **** *   CapSense_senseClkDividerVal[]: used to store the Analog Switch
 135:Generated_Source\PSoC4/CapSense_SMS.c **** *   dividers for each sensor.
 136:Generated_Source\PSoC4/CapSense_SMS.c **** *   CapSense_senseClkDividerVal[]: used to store the
 137:Generated_Source\PSoC4/CapSense_SMS.c **** *    Analog Switch divider for all sensors.
 138:Generated_Source\PSoC4/CapSense_SMS.c **** *   CapSense_prescalersTuningDone - used to notify the Tuner GUI that
 139:Generated_Source\PSoC4/CapSense_SMS.c **** *   the pre-scalers tuning  is done.
 140:Generated_Source\PSoC4/CapSense_SMS.c **** *
 141:Generated_Source\PSoC4/CapSense_SMS.c **** * Side Effects:
 142:Generated_Source\PSoC4/CapSense_SMS.c **** *  None
 143:Generated_Source\PSoC4/CapSense_SMS.c **** *
 144:Generated_Source\PSoC4/CapSense_SMS.c **** *******************************************************************************/
 145:Generated_Source\PSoC4/CapSense_SMS.c **** void CapSense_AutoTune(void)
 146:Generated_Source\PSoC4/CapSense_SMS.c **** {
  98              		.loc 1 146 0
  99              		.cfi_startproc
 100              		@ args = 0, pretend = 0, frame = 8
 101              		@ frame_needed = 1, uses_anonymous_args = 0
 102 0000 80B5     		push	{r7, lr}
 103              		.cfi_def_cfa_offset 8
 104              		.cfi_offset 7, -8
 105              		.cfi_offset 14, -4
 106 0002 82B0     		sub	sp, sp, #8
 107              		.cfi_def_cfa_offset 16
 108 0004 00AF     		add	r7, sp, #0
 109              		.cfi_def_cfa_register 7
 147:Generated_Source\PSoC4/CapSense_SMS.c ****     uint32 curSensor;
 148:Generated_Source\PSoC4/CapSense_SMS.c ****     uint32 widget;
 149:Generated_Source\PSoC4/CapSense_SMS.c **** 
 150:Generated_Source\PSoC4/CapSense_SMS.c ****     CapSense_config.totalScanslotsNum = CapSense_TOTAL_SCANSLOT_COUNT;
 110              		.loc 1 150 0
 111 0006 384B     		ldr	r3, .L8
 112 0008 0522     		movs	r2, #5
 113 000a 1A70     		strb	r2, [r3]
 151:Generated_Source\PSoC4/CapSense_SMS.c ****     CapSense_config.totalWidgetsNum = CapSense_END_OF_WIDGETS_INDEX;
 114              		.loc 1 151 0
 115 000c 364B     		ldr	r3, .L8
 116 000e 0122     		movs	r2, #1
 117 0010 5A70     		strb	r2, [r3, #1]
 152:Generated_Source\PSoC4/CapSense_SMS.c ****     CapSense_config.totalSensorsNum = CapSense_TOTAL_SENSOR_COUNT;
 118              		.loc 1 152 0
 119 0012 354B     		ldr	r3, .L8
 120 0014 0522     		movs	r2, #5
 121 0016 9A70     		strb	r2, [r3, #2]
 153:Generated_Source\PSoC4/CapSense_SMS.c **** 
 154:Generated_Source\PSoC4/CapSense_SMS.c ****     CapSense_config.hfclkFreq_MHz = CYDEV_BCLK__HFCLK__MHZ;
 122              		.loc 1 154 0
 123 0018 334B     		ldr	r3, .L8
 124 001a 1822     		movs	r2, #24
 125 001c DA80     		strh	r2, [r3, #6]
 155:Generated_Source\PSoC4/CapSense_SMS.c ****     CapSense_config.sensetivitySeed = CapSense_SENSETIVITY_FACTOR;
 126              		.loc 1 155 0
 127 001e 324B     		ldr	r3, .L8
 128 0020 324A     		ldr	r2, .L8+4
 129 0022 9A80     		strh	r2, [r3, #4]
 156:Generated_Source\PSoC4/CapSense_SMS.c **** 
ARM GAS  C:\Users\jon\AppData\Local\Temp\ccMQaWNJ.s 			page 6


 157:Generated_Source\PSoC4/CapSense_SMS.c ****     CapSense_config.pointers = &CapSense_configPointers;
 130              		.loc 1 157 0
 131 0024 304B     		ldr	r3, .L8
 132 0026 324A     		ldr	r2, .L8+8
 133 0028 9A60     		str	r2, [r3, #8]
 158:Generated_Source\PSoC4/CapSense_SMS.c **** 
 159:Generated_Source\PSoC4/CapSense_SMS.c ****     CapSense_SetAnalogSwitchesSrcDirect();
 134              		.loc 1 159 0
 135 002a FFF7FEFF 		bl	CapSense_SetAnalogSwitchesSrcDirect
 160:Generated_Source\PSoC4/CapSense_SMS.c **** 
 161:Generated_Source\PSoC4/CapSense_SMS.c ****     for(widget = 0u; widget < CapSense_config.totalWidgetsNum; widget++)
 136              		.loc 1 161 0
 137 002e 0023     		movs	r3, #0
 138 0030 3B60     		str	r3, [r7]
 139 0032 07E0     		b	.L2
 140              	.L3:
 162:Generated_Source\PSoC4/CapSense_SMS.c ****     {
 163:Generated_Source\PSoC4/CapSense_SMS.c ****         CapSense_widgetResolution[widget] = CapSense_CALIBRATION_RESOLUTION;
 141              		.loc 1 163 0 discriminator 3
 142 0034 2F4B     		ldr	r3, .L8+12
 143 0036 3A68     		ldr	r2, [r7]
 144 0038 9200     		lsls	r2, r2, #2
 145 003a 2F49     		ldr	r1, .L8+16
 146 003c D150     		str	r1, [r2, r3]
 161:Generated_Source\PSoC4/CapSense_SMS.c ****     {
 147              		.loc 1 161 0 discriminator 3
 148 003e 3B68     		ldr	r3, [r7]
 149 0040 0133     		adds	r3, r3, #1
 150 0042 3B60     		str	r3, [r7]
 151              	.L2:
 161:Generated_Source\PSoC4/CapSense_SMS.c ****     {
 152              		.loc 1 161 0 is_stmt 0 discriminator 1
 153 0044 284B     		ldr	r3, .L8
 154 0046 5B78     		ldrb	r3, [r3, #1]
 155 0048 1A00     		movs	r2, r3
 156 004a 3B68     		ldr	r3, [r7]
 157 004c 9A42     		cmp	r2, r3
 158 004e F1D8     		bhi	.L3
 164:Generated_Source\PSoC4/CapSense_SMS.c ****     }
 165:Generated_Source\PSoC4/CapSense_SMS.c **** 
 166:Generated_Source\PSoC4/CapSense_SMS.c **** 
 167:Generated_Source\PSoC4/CapSense_SMS.c ****     for(curSensor = 0u; curSensor < CapSense_TOTAL_SCANSLOT_COUNT; curSensor++)
 159              		.loc 1 167 0 is_stmt 1
 160 0050 0023     		movs	r3, #0
 161 0052 7B60     		str	r3, [r7, #4]
 162 0054 0CE0     		b	.L4
 163              	.L5:
 168:Generated_Source\PSoC4/CapSense_SMS.c ****     {
 169:Generated_Source\PSoC4/CapSense_SMS.c ****         CapSense_senseClkDividerVal[curSensor] = CapSense_CALIBRATION_ASD;
 164              		.loc 1 169 0 discriminator 3
 165 0056 294A     		ldr	r2, .L8+20
 166 0058 7B68     		ldr	r3, [r7, #4]
 167 005a D318     		adds	r3, r2, r3
 168 005c 0422     		movs	r2, #4
 169 005e 1A70     		strb	r2, [r3]
 170:Generated_Source\PSoC4/CapSense_SMS.c ****         CapSense_sampleClkDividerVal[curSensor] = CapSense_CALIBRATION_MD;
 170              		.loc 1 170 0 discriminator 3
ARM GAS  C:\Users\jon\AppData\Local\Temp\ccMQaWNJ.s 			page 7


 171 0060 274A     		ldr	r2, .L8+24
 172 0062 7B68     		ldr	r3, [r7, #4]
 173 0064 D318     		adds	r3, r2, r3
 174 0066 0222     		movs	r2, #2
 175 0068 1A70     		strb	r2, [r3]
 167:Generated_Source\PSoC4/CapSense_SMS.c ****     {
 176              		.loc 1 167 0 discriminator 3
 177 006a 7B68     		ldr	r3, [r7, #4]
 178 006c 0133     		adds	r3, r3, #1
 179 006e 7B60     		str	r3, [r7, #4]
 180              	.L4:
 167:Generated_Source\PSoC4/CapSense_SMS.c ****     {
 181              		.loc 1 167 0 is_stmt 0 discriminator 1
 182 0070 7B68     		ldr	r3, [r7, #4]
 183 0072 042B     		cmp	r3, #4
 184 0074 EFD9     		bls	.L5
 171:Generated_Source\PSoC4/CapSense_SMS.c ****     }
 172:Generated_Source\PSoC4/CapSense_SMS.c **** 
 173:Generated_Source\PSoC4/CapSense_SMS.c ****     CapSense_DisableBaselineIDAC();
 185              		.loc 1 173 0 is_stmt 1
 186 0076 FFF7FEFF 		bl	CapSense_DisableBaselineIDAC
 174:Generated_Source\PSoC4/CapSense_SMS.c **** 
 175:Generated_Source\PSoC4/CapSense_SMS.c ****     CalibrateSensors_P4_v2_60(&CapSense_config, CapSense_CAL_RAW_COUNT);
 187              		.loc 1 175 0
 188 007a 224A     		ldr	r2, .L8+28
 189 007c 1A4B     		ldr	r3, .L8
 190 007e 1100     		movs	r1, r2
 191 0080 1800     		movs	r0, r3
 192 0082 FFF7FEFF 		bl	CalibrateSensors_P4_v2_60
 176:Generated_Source\PSoC4/CapSense_SMS.c **** 
 177:Generated_Source\PSoC4/CapSense_SMS.c ****     #if(0u != CapSense_TOTAL_CENTROIDS_COUNT)
 178:Generated_Source\PSoC4/CapSense_SMS.c ****         CapSense_NormalizeWidgets(CapSense_END_OF_WIDGETS_INDEX, CapSense_modulationIDAC);
 193              		.loc 1 178 0
 194 0086 204B     		ldr	r3, .L8+32
 195 0088 1900     		movs	r1, r3
 196 008a 0120     		movs	r0, #1
 197 008c FFF7FEFF 		bl	CapSense_NormalizeWidgets
 179:Generated_Source\PSoC4/CapSense_SMS.c ****     #endif /* (0u != CapSense_TOTAL_CENTROIDS_COUNT)  */
 180:Generated_Source\PSoC4/CapSense_SMS.c **** 
 181:Generated_Source\PSoC4/CapSense_SMS.c ****     TunePrescalers_P4_v2_60(&CapSense_config);
 198              		.loc 1 181 0
 199 0090 154B     		ldr	r3, .L8
 200 0092 1800     		movs	r0, r3
 201 0094 FFF7FEFF 		bl	TunePrescalers_P4_v2_60
 182:Generated_Source\PSoC4/CapSense_SMS.c **** 
 183:Generated_Source\PSoC4/CapSense_SMS.c ****     #if(CapSense_PRS_OPTIONS != CapSense__PRS_NONE)
 184:Generated_Source\PSoC4/CapSense_SMS.c ****         CapSense_prescalersTuningDone = 1u;
 202              		.loc 1 184 0
 203 0098 1C4B     		ldr	r3, .L8+36
 204 009a 0122     		movs	r2, #1
 205 009c 1A70     		strb	r2, [r3]
 185:Generated_Source\PSoC4/CapSense_SMS.c ****     #endif /* (CapSense_PRS_OPTIONS == CapSense__PRS_NONE) */
 186:Generated_Source\PSoC4/CapSense_SMS.c **** 
 187:Generated_Source\PSoC4/CapSense_SMS.c ****     CalibrateSensors_P4_v2_60(&CapSense_config, CapSense_CAL_RAW_COUNT);
 206              		.loc 1 187 0
 207 009e 194A     		ldr	r2, .L8+28
 208 00a0 114B     		ldr	r3, .L8
ARM GAS  C:\Users\jon\AppData\Local\Temp\ccMQaWNJ.s 			page 8


 209 00a2 1100     		movs	r1, r2
 210 00a4 1800     		movs	r0, r3
 211 00a6 FFF7FEFF 		bl	CalibrateSensors_P4_v2_60
 188:Generated_Source\PSoC4/CapSense_SMS.c ****     #if(0u != CapSense_TOTAL_CENTROIDS_COUNT)
 189:Generated_Source\PSoC4/CapSense_SMS.c ****         CapSense_NormalizeWidgets(CapSense_END_OF_WIDGETS_INDEX, CapSense_modulationIDAC);
 212              		.loc 1 189 0
 213 00aa 174B     		ldr	r3, .L8+32
 214 00ac 1900     		movs	r1, r3
 215 00ae 0120     		movs	r0, #1
 216 00b0 FFF7FEFF 		bl	CapSense_NormalizeWidgets
 190:Generated_Source\PSoC4/CapSense_SMS.c ****     #endif /* (0u != CapSense_TOTAL_CENTROIDS_COUNT)  */
 191:Generated_Source\PSoC4/CapSense_SMS.c ****     TuneSensitivity_P4_v2_60(&CapSense_config);
 217              		.loc 1 191 0
 218 00b4 0C4B     		ldr	r3, .L8
 219 00b6 1800     		movs	r0, r3
 220 00b8 FFF7FEFF 		bl	TuneSensitivity_P4_v2_60
 192:Generated_Source\PSoC4/CapSense_SMS.c **** 
 193:Generated_Source\PSoC4/CapSense_SMS.c ****     CapSense_EnableBaselineIDAC(&CapSense_config);
 221              		.loc 1 193 0
 222 00bc 0A4B     		ldr	r3, .L8
 223 00be 1800     		movs	r0, r3
 224 00c0 FFF7FEFF 		bl	CapSense_EnableBaselineIDAC
 194:Generated_Source\PSoC4/CapSense_SMS.c **** 
 195:Generated_Source\PSoC4/CapSense_SMS.c ****     for(curSensor = 0u; curSensor < CapSense_TOTAL_SCANSLOT_COUNT; curSensor++)
 225              		.loc 1 195 0
 226 00c4 0023     		movs	r3, #0
 227 00c6 7B60     		str	r3, [r7, #4]
 228 00c8 06E0     		b	.L6
 229              	.L7:
 196:Generated_Source\PSoC4/CapSense_SMS.c ****     {
 197:Generated_Source\PSoC4/CapSense_SMS.c ****         CapSense_UpdateThresholds(curSensor);
 230              		.loc 1 197 0 discriminator 3
 231 00ca 7B68     		ldr	r3, [r7, #4]
 232 00cc 1800     		movs	r0, r3
 233 00ce FFF7FEFF 		bl	CapSense_UpdateThresholds
 195:Generated_Source\PSoC4/CapSense_SMS.c ****     {
 234              		.loc 1 195 0 discriminator 3
 235 00d2 7B68     		ldr	r3, [r7, #4]
 236 00d4 0133     		adds	r3, r3, #1
 237 00d6 7B60     		str	r3, [r7, #4]
 238              	.L6:
 195:Generated_Source\PSoC4/CapSense_SMS.c ****     {
 239              		.loc 1 195 0 is_stmt 0 discriminator 1
 240 00d8 7B68     		ldr	r3, [r7, #4]
 241 00da 042B     		cmp	r3, #4
 242 00dc F5D9     		bls	.L7
 198:Generated_Source\PSoC4/CapSense_SMS.c ****     }
 199:Generated_Source\PSoC4/CapSense_SMS.c **** }
 243              		.loc 1 199 0 is_stmt 1
 244 00de C046     		nop
 245 00e0 BD46     		mov	sp, r7
 246 00e2 02B0     		add	sp, sp, #8
 247              		@ sp needed
 248 00e4 80BD     		pop	{r7, pc}
 249              	.L9:
 250 00e6 C046     		.align	2
 251              	.L8:
ARM GAS  C:\Users\jon\AppData\Local\Temp\ccMQaWNJ.s 			page 9


 252 00e8 00000000 		.word	CapSense_config
 253 00ec 66020000 		.word	614
 254 00f0 00000000 		.word	CapSense_configPointers
 255 00f4 00000000 		.word	CapSense_widgetResolution
 256 00f8 0000FF0F 		.word	268369920
 257 00fc 00000000 		.word	CapSense_senseClkDividerVal
 258 0100 00000000 		.word	CapSense_sampleClkDividerVal
 259 0104 9A0D0000 		.word	3482
 260 0108 00000000 		.word	CapSense_modulationIDAC
 261 010c 00000000 		.word	CapSense_prescalersTuningDone
 262              		.cfi_endproc
 263              	.LFE32:
 264              		.size	CapSense_AutoTune, .-CapSense_AutoTune
 265              		.section	.text.CapSense_UpdateThresholds,"ax",%progbits
 266              		.align	2
 267              		.global	CapSense_UpdateThresholds
 268              		.code	16
 269              		.thumb_func
 270              		.type	CapSense_UpdateThresholds, %function
 271              	CapSense_UpdateThresholds:
 272              	.LFB33:
 200:Generated_Source\PSoC4/CapSense_SMS.c **** 
 201:Generated_Source\PSoC4/CapSense_SMS.c **** 
 202:Generated_Source\PSoC4/CapSense_SMS.c **** /*******************************************************************************
 203:Generated_Source\PSoC4/CapSense_SMS.c **** * Function Name: CapSense_UpdateThresholds
 204:Generated_Source\PSoC4/CapSense_SMS.c **** ********************************************************************************
 205:Generated_Source\PSoC4/CapSense_SMS.c **** *
 206:Generated_Source\PSoC4/CapSense_SMS.c **** * Summary:
 207:Generated_Source\PSoC4/CapSense_SMS.c **** *  The API updates the Finger Threshold, Hysteresis, Noise Threshold, and
 208:Generated_Source\PSoC4/CapSense_SMS.c **** *  Negative Noise Threshold in the AutoTuning (Smartsense) Mode.
 209:Generated_Source\PSoC4/CapSense_SMS.c **** *
 210:Generated_Source\PSoC4/CapSense_SMS.c **** * Parameters:
 211:Generated_Source\PSoC4/CapSense_SMS.c **** *  sensor: sensor number.
 212:Generated_Source\PSoC4/CapSense_SMS.c **** *
 213:Generated_Source\PSoC4/CapSense_SMS.c **** * Return:
 214:Generated_Source\PSoC4/CapSense_SMS.c **** *  None
 215:Generated_Source\PSoC4/CapSense_SMS.c **** *
 216:Generated_Source\PSoC4/CapSense_SMS.c **** * Global Variables:
 217:Generated_Source\PSoC4/CapSense_SMS.c **** *  CapSense_widgetNumber[] - contains widget Number for given sensor.
 218:Generated_Source\PSoC4/CapSense_SMS.c **** *  0 through 7 (sensor 0 is bit 0, sensor 1 is bit 1).
 219:Generated_Source\PSoC4/CapSense_SMS.c **** *  For other sensors the array element equals to 255.
 220:Generated_Source\PSoC4/CapSense_SMS.c **** *  CapSense_numberOfSensors[widget] - Number of sensors in the widget.
 221:Generated_Source\PSoC4/CapSense_SMS.c **** *   CapSense_fingerThreshold[] - contains the level of signal for each sensor
 222:Generated_Source\PSoC4/CapSense_SMS.c **** *   that determines if a finger present on the sensor.
 223:Generated_Source\PSoC4/CapSense_SMS.c **** *   CapSense_negativeNoiseThreshold[] - negative Noise Threshold
 224:Generated_Source\PSoC4/CapSense_SMS.c **** *   CapSense_hysteresis[] - the array with hysteresis values.
 225:Generated_Source\PSoC4/CapSense_SMS.c **** *
 226:Generated_Source\PSoC4/CapSense_SMS.c **** * Side Effects:
 227:Generated_Source\PSoC4/CapSense_SMS.c **** *  None
 228:Generated_Source\PSoC4/CapSense_SMS.c **** *
 229:Generated_Source\PSoC4/CapSense_SMS.c **** *******************************************************************************/
 230:Generated_Source\PSoC4/CapSense_SMS.c **** void CapSense_UpdateThresholds(uint32 sensor)
 231:Generated_Source\PSoC4/CapSense_SMS.c **** {
 273              		.loc 1 231 0
 274              		.cfi_startproc
 275              		@ args = 0, pretend = 0, frame = 16
 276              		@ frame_needed = 1, uses_anonymous_args = 0
ARM GAS  C:\Users\jon\AppData\Local\Temp\ccMQaWNJ.s 			page 10


 277 0000 90B5     		push	{r4, r7, lr}
 278              		.cfi_def_cfa_offset 12
 279              		.cfi_offset 4, -12
 280              		.cfi_offset 7, -8
 281              		.cfi_offset 14, -4
 282 0002 87B0     		sub	sp, sp, #28
 283              		.cfi_def_cfa_offset 40
 284 0004 02AF     		add	r7, sp, #8
 285              		.cfi_def_cfa 7, 32
 286 0006 7860     		str	r0, [r7, #4]
 232:Generated_Source\PSoC4/CapSense_SMS.c ****     uint8 fingerThreshold;
 233:Generated_Source\PSoC4/CapSense_SMS.c ****     uint32 widget;
 234:Generated_Source\PSoC4/CapSense_SMS.c **** 
 235:Generated_Source\PSoC4/CapSense_SMS.c ****     widget = CapSense_widgetNumber[sensor];
 287              		.loc 1 235 0
 288 0008 344A     		ldr	r2, .L17
 289 000a 7B68     		ldr	r3, [r7, #4]
 290 000c D318     		adds	r3, r2, r3
 291 000e 1B78     		ldrb	r3, [r3]
 292 0010 FB60     		str	r3, [r7, #12]
 236:Generated_Source\PSoC4/CapSense_SMS.c **** 
 237:Generated_Source\PSoC4/CapSense_SMS.c ****     #if(0u != CapSense_FLEXIBLE_THRESHOLDS_EN)
 238:Generated_Source\PSoC4/CapSense_SMS.c ****         fingerThreshold = CapSense_fingerThreshold[widget];
 239:Generated_Source\PSoC4/CapSense_SMS.c ****         /* Update Threshold manually (flexible) */
 240:Generated_Source\PSoC4/CapSense_SMS.c ****         CapSense_noiseThreshold[widget] = (uint8)(fingerThreshold >> 1u);
 241:Generated_Source\PSoC4/CapSense_SMS.c ****         CapSense_negativeNoiseThreshold[widget] = (uint8)(fingerThreshold >> 1u);
 242:Generated_Source\PSoC4/CapSense_SMS.c ****         CapSense_hysteresis[widget] = (uint8)(fingerThreshold >> 3u);
 243:Generated_Source\PSoC4/CapSense_SMS.c ****     #else
 244:Generated_Source\PSoC4/CapSense_SMS.c ****         /* Calculate Finger Threshold and Noise Threshold with Smartsense (automatic) */
 245:Generated_Source\PSoC4/CapSense_SMS.c ****         CalculateThresholds_P4_v2_60(&CapSense_config, (uint8)sensor, (uint8)widget, CapSense_finge
 293              		.loc 1 245 0
 294 0012 7B68     		ldr	r3, [r7, #4]
 295 0014 D9B2     		uxtb	r1, r3
 296 0016 FB68     		ldr	r3, [r7, #12]
 297 0018 DAB2     		uxtb	r2, r3
 298 001a 314C     		ldr	r4, .L17+4
 299 001c 3148     		ldr	r0, .L17+8
 300 001e 324B     		ldr	r3, .L17+12
 301 0020 0093     		str	r3, [sp]
 302 0022 2300     		movs	r3, r4
 303 0024 FFF7FEFF 		bl	CalculateThresholds_P4_v2_60
 246:Generated_Source\PSoC4/CapSense_SMS.c **** 
 247:Generated_Source\PSoC4/CapSense_SMS.c ****         fingerThreshold = CapSense_fingerThreshold[widget];
 304              		.loc 1 247 0
 305 0028 0B23     		movs	r3, #11
 306 002a FB18     		adds	r3, r7, r3
 307 002c 2C49     		ldr	r1, .L17+4
 308 002e FA68     		ldr	r2, [r7, #12]
 309 0030 8A18     		adds	r2, r1, r2
 310 0032 1278     		ldrb	r2, [r2]
 311 0034 1A70     		strb	r2, [r3]
 248:Generated_Source\PSoC4/CapSense_SMS.c **** 
 249:Generated_Source\PSoC4/CapSense_SMS.c ****         /* Update Threshold based on calculated with Smartsense (automatic) */
 250:Generated_Source\PSoC4/CapSense_SMS.c ****         CapSense_negativeNoiseThreshold[widget] = CapSense_noiseThreshold[widget];
 312              		.loc 1 250 0
 313 0036 2C4A     		ldr	r2, .L17+12
 314 0038 FB68     		ldr	r3, [r7, #12]
ARM GAS  C:\Users\jon\AppData\Local\Temp\ccMQaWNJ.s 			page 11


 315 003a D318     		adds	r3, r2, r3
 316 003c 1978     		ldrb	r1, [r3]
 317 003e 2B4A     		ldr	r2, .L17+16
 318 0040 FB68     		ldr	r3, [r7, #12]
 319 0042 D318     		adds	r3, r2, r3
 320 0044 0A1C     		adds	r2, r1, #0
 321 0046 1A70     		strb	r2, [r3]
 251:Generated_Source\PSoC4/CapSense_SMS.c **** 
 252:Generated_Source\PSoC4/CapSense_SMS.c ****         if(fingerThreshold < CapSense_THRESHOLD_1)
 322              		.loc 1 252 0
 323 0048 0B23     		movs	r3, #11
 324 004a FB18     		adds	r3, r7, r3
 325 004c 1B78     		ldrb	r3, [r3]
 326 004e DB2B     		cmp	r3, #219
 327 0050 0AD8     		bhi	.L11
 253:Generated_Source\PSoC4/CapSense_SMS.c ****         {
 254:Generated_Source\PSoC4/CapSense_SMS.c ****             CapSense_hysteresis[widget] = (uint8)(fingerThreshold >> 3u);
 328              		.loc 1 254 0
 329 0052 0B23     		movs	r3, #11
 330 0054 FB18     		adds	r3, r7, r3
 331 0056 1B78     		ldrb	r3, [r3]
 332 0058 DB08     		lsrs	r3, r3, #3
 333 005a D9B2     		uxtb	r1, r3
 334 005c 244A     		ldr	r2, .L17+20
 335 005e FB68     		ldr	r3, [r7, #12]
 336 0060 D318     		adds	r3, r2, r3
 337 0062 0A1C     		adds	r2, r1, #0
 338 0064 1A70     		strb	r2, [r3]
 255:Generated_Source\PSoC4/CapSense_SMS.c ****         }
 256:Generated_Source\PSoC4/CapSense_SMS.c ****         else if(fingerThreshold <  CapSense_THRESHOLD_2)
 257:Generated_Source\PSoC4/CapSense_SMS.c ****         {
 258:Generated_Source\PSoC4/CapSense_SMS.c ****             CapSense_hysteresis[widget] = (uint8)(fingerThreshold >> 4u);
 259:Generated_Source\PSoC4/CapSense_SMS.c ****         }
 260:Generated_Source\PSoC4/CapSense_SMS.c ****         else if(fingerThreshold <  CapSense_THRESHOLD_3)
 261:Generated_Source\PSoC4/CapSense_SMS.c ****         {
 262:Generated_Source\PSoC4/CapSense_SMS.c ****             CapSense_hysteresis[widget] = (uint8)(fingerThreshold >> 5u);
 263:Generated_Source\PSoC4/CapSense_SMS.c ****         }
 264:Generated_Source\PSoC4/CapSense_SMS.c ****         else if(fingerThreshold <  CapSense_THRESHOLD_4)
 265:Generated_Source\PSoC4/CapSense_SMS.c ****         {
 266:Generated_Source\PSoC4/CapSense_SMS.c ****             CapSense_hysteresis[widget] = (uint8)(fingerThreshold >> 6u);
 267:Generated_Source\PSoC4/CapSense_SMS.c ****         }
 268:Generated_Source\PSoC4/CapSense_SMS.c ****         else
 269:Generated_Source\PSoC4/CapSense_SMS.c ****         {
 270:Generated_Source\PSoC4/CapSense_SMS.c ****             CapSense_hysteresis[widget] = 0u;
 271:Generated_Source\PSoC4/CapSense_SMS.c ****         }
 272:Generated_Source\PSoC4/CapSense_SMS.c ****     #endif /* (0u != CapSense_FLEXIBLE_THRESHOLDS_EN)  */
 273:Generated_Source\PSoC4/CapSense_SMS.c **** }
 339              		.loc 1 273 0
 340 0066 34E0     		b	.L16
 341              	.L11:
 256:Generated_Source\PSoC4/CapSense_SMS.c ****         {
 342              		.loc 1 256 0
 343 0068 0B23     		movs	r3, #11
 344 006a FB18     		adds	r3, r7, r3
 345 006c 1B78     		ldrb	r3, [r3]
 346 006e EC2B     		cmp	r3, #236
 347 0070 0AD8     		bhi	.L13
ARM GAS  C:\Users\jon\AppData\Local\Temp\ccMQaWNJ.s 			page 12


 258:Generated_Source\PSoC4/CapSense_SMS.c ****         }
 348              		.loc 1 258 0
 349 0072 0B23     		movs	r3, #11
 350 0074 FB18     		adds	r3, r7, r3
 351 0076 1B78     		ldrb	r3, [r3]
 352 0078 1B09     		lsrs	r3, r3, #4
 353 007a D9B2     		uxtb	r1, r3
 354 007c 1C4A     		ldr	r2, .L17+20
 355 007e FB68     		ldr	r3, [r7, #12]
 356 0080 D318     		adds	r3, r2, r3
 357 0082 0A1C     		adds	r2, r1, #0
 358 0084 1A70     		strb	r2, [r3]
 359              		.loc 1 273 0
 360 0086 24E0     		b	.L16
 361              	.L13:
 260:Generated_Source\PSoC4/CapSense_SMS.c ****         {
 362              		.loc 1 260 0
 363 0088 0B23     		movs	r3, #11
 364 008a FB18     		adds	r3, r7, r3
 365 008c 1B78     		ldrb	r3, [r3]
 366 008e F42B     		cmp	r3, #244
 367 0090 0AD8     		bhi	.L14
 262:Generated_Source\PSoC4/CapSense_SMS.c ****         }
 368              		.loc 1 262 0
 369 0092 0B23     		movs	r3, #11
 370 0094 FB18     		adds	r3, r7, r3
 371 0096 1B78     		ldrb	r3, [r3]
 372 0098 5B09     		lsrs	r3, r3, #5
 373 009a D9B2     		uxtb	r1, r3
 374 009c 144A     		ldr	r2, .L17+20
 375 009e FB68     		ldr	r3, [r7, #12]
 376 00a0 D318     		adds	r3, r2, r3
 377 00a2 0A1C     		adds	r2, r1, #0
 378 00a4 1A70     		strb	r2, [r3]
 379              		.loc 1 273 0
 380 00a6 14E0     		b	.L16
 381              	.L14:
 264:Generated_Source\PSoC4/CapSense_SMS.c ****         {
 382              		.loc 1 264 0
 383 00a8 0B23     		movs	r3, #11
 384 00aa FB18     		adds	r3, r7, r3
 385 00ac 1B78     		ldrb	r3, [r3]
 386 00ae F92B     		cmp	r3, #249
 387 00b0 0AD8     		bhi	.L15
 266:Generated_Source\PSoC4/CapSense_SMS.c ****         }
 388              		.loc 1 266 0
 389 00b2 0B23     		movs	r3, #11
 390 00b4 FB18     		adds	r3, r7, r3
 391 00b6 1B78     		ldrb	r3, [r3]
 392 00b8 9B09     		lsrs	r3, r3, #6
 393 00ba D9B2     		uxtb	r1, r3
 394 00bc 0C4A     		ldr	r2, .L17+20
 395 00be FB68     		ldr	r3, [r7, #12]
 396 00c0 D318     		adds	r3, r2, r3
 397 00c2 0A1C     		adds	r2, r1, #0
 398 00c4 1A70     		strb	r2, [r3]
 399              		.loc 1 273 0
ARM GAS  C:\Users\jon\AppData\Local\Temp\ccMQaWNJ.s 			page 13


 400 00c6 04E0     		b	.L16
 401              	.L15:
 270:Generated_Source\PSoC4/CapSense_SMS.c ****         }
 402              		.loc 1 270 0
 403 00c8 094A     		ldr	r2, .L17+20
 404 00ca FB68     		ldr	r3, [r7, #12]
 405 00cc D318     		adds	r3, r2, r3
 406 00ce 0022     		movs	r2, #0
 407 00d0 1A70     		strb	r2, [r3]
 408              	.L16:
 409              		.loc 1 273 0
 410 00d2 C046     		nop
 411 00d4 BD46     		mov	sp, r7
 412 00d6 05B0     		add	sp, sp, #20
 413              		@ sp needed
 414 00d8 90BD     		pop	{r4, r7, pc}
 415              	.L18:
 416 00da C046     		.align	2
 417              	.L17:
 418 00dc 00000000 		.word	CapSense_widgetNumber
 419 00e0 00000000 		.word	CapSense_fingerThreshold
 420 00e4 00000000 		.word	CapSense_config
 421 00e8 00000000 		.word	CapSense_noiseThreshold
 422 00ec 00000000 		.word	CapSense_negativeNoiseThreshold
 423 00f0 00000000 		.word	CapSense_hysteresis
 424              		.cfi_endproc
 425              	.LFE33:
 426              		.size	CapSense_UpdateThresholds, .-CapSense_UpdateThresholds
 427              		.section	.text.CapSense_SetAnalogSwitchesSrcDirect,"ax",%progbits
 428              		.align	2
 429              		.global	CapSense_SetAnalogSwitchesSrcDirect
 430              		.code	16
 431              		.thumb_func
 432              		.type	CapSense_SetAnalogSwitchesSrcDirect, %function
 433              	CapSense_SetAnalogSwitchesSrcDirect:
 434              	.LFB34:
 274:Generated_Source\PSoC4/CapSense_SMS.c **** 
 275:Generated_Source\PSoC4/CapSense_SMS.c **** /*******************************************************************************
 276:Generated_Source\PSoC4/CapSense_SMS.c **** * Function Name: CapSense_SetAnalogSwitchesSrcDirect
 277:Generated_Source\PSoC4/CapSense_SMS.c **** ********************************************************************************
 278:Generated_Source\PSoC4/CapSense_SMS.c **** *
 279:Generated_Source\PSoC4/CapSense_SMS.c **** * Summary:
 280:Generated_Source\PSoC4/CapSense_SMS.c **** *  This API switches the charge clock source to prescaler.
 281:Generated_Source\PSoC4/CapSense_SMS.c **** *
 282:Generated_Source\PSoC4/CapSense_SMS.c **** * Parameters:
 283:Generated_Source\PSoC4/CapSense_SMS.c **** *  None
 284:Generated_Source\PSoC4/CapSense_SMS.c **** *
 285:Generated_Source\PSoC4/CapSense_SMS.c **** * Return:
 286:Generated_Source\PSoC4/CapSense_SMS.c **** *  None
 287:Generated_Source\PSoC4/CapSense_SMS.c **** *
 288:Generated_Source\PSoC4/CapSense_SMS.c **** * Global Variables:
 289:Generated_Source\PSoC4/CapSense_SMS.c **** *  None
 290:Generated_Source\PSoC4/CapSense_SMS.c **** *
 291:Generated_Source\PSoC4/CapSense_SMS.c **** * Side Effects:
 292:Generated_Source\PSoC4/CapSense_SMS.c **** *  None
 293:Generated_Source\PSoC4/CapSense_SMS.c **** *
 294:Generated_Source\PSoC4/CapSense_SMS.c **** *******************************************************************************/
ARM GAS  C:\Users\jon\AppData\Local\Temp\ccMQaWNJ.s 			page 14


 295:Generated_Source\PSoC4/CapSense_SMS.c **** void CapSense_SetAnalogSwitchesSrcDirect(void)
 296:Generated_Source\PSoC4/CapSense_SMS.c **** {
 435              		.loc 1 296 0
 436              		.cfi_startproc
 437              		@ args = 0, pretend = 0, frame = 0
 438              		@ frame_needed = 1, uses_anonymous_args = 0
 439 0000 80B5     		push	{r7, lr}
 440              		.cfi_def_cfa_offset 8
 441              		.cfi_offset 7, -8
 442              		.cfi_offset 14, -4
 443 0002 00AF     		add	r7, sp, #0
 444              		.cfi_def_cfa_register 7
 297:Generated_Source\PSoC4/CapSense_SMS.c ****     CapSense_CSD_CFG_REG &= ~(CapSense_CSD_CFG_PRS_SELECT);
 445              		.loc 1 297 0
 446 0004 044B     		ldr	r3, .L20
 447 0006 044A     		ldr	r2, .L20
 448 0008 1268     		ldr	r2, [r2]
 449 000a 4021     		movs	r1, #64
 450 000c 8A43     		bics	r2, r1
 451 000e 1A60     		str	r2, [r3]
 298:Generated_Source\PSoC4/CapSense_SMS.c **** }
 452              		.loc 1 298 0
 453 0010 C046     		nop
 454 0012 BD46     		mov	sp, r7
 455              		@ sp needed
 456 0014 80BD     		pop	{r7, pc}
 457              	.L21:
 458 0016 C046     		.align	2
 459              	.L20:
 460 0018 04000840 		.word	1074266116
 461              		.cfi_endproc
 462              	.LFE34:
 463              		.size	CapSense_SetAnalogSwitchesSrcDirect, .-CapSense_SetAnalogSwitchesSrcDirect
 464              		.section	.text.CapSense_DisableBaselineIDAC,"ax",%progbits
 465              		.align	2
 466              		.global	CapSense_DisableBaselineIDAC
 467              		.code	16
 468              		.thumb_func
 469              		.type	CapSense_DisableBaselineIDAC, %function
 470              	CapSense_DisableBaselineIDAC:
 471              	.LFB35:
 299:Generated_Source\PSoC4/CapSense_SMS.c **** 
 300:Generated_Source\PSoC4/CapSense_SMS.c **** 
 301:Generated_Source\PSoC4/CapSense_SMS.c **** /*******************************************************************************
 302:Generated_Source\PSoC4/CapSense_SMS.c **** * Function Name: CapSense_DisableBaselineIDAC
 303:Generated_Source\PSoC4/CapSense_SMS.c **** ********************************************************************************
 304:Generated_Source\PSoC4/CapSense_SMS.c **** *
 305:Generated_Source\PSoC4/CapSense_SMS.c **** * Summary:
 306:Generated_Source\PSoC4/CapSense_SMS.c **** *  The API disables the Compensation IDAC.
 307:Generated_Source\PSoC4/CapSense_SMS.c **** *
 308:Generated_Source\PSoC4/CapSense_SMS.c **** * Parameters:
 309:Generated_Source\PSoC4/CapSense_SMS.c **** *  None
 310:Generated_Source\PSoC4/CapSense_SMS.c **** *
 311:Generated_Source\PSoC4/CapSense_SMS.c **** * Return:
 312:Generated_Source\PSoC4/CapSense_SMS.c **** *  None
 313:Generated_Source\PSoC4/CapSense_SMS.c **** *
 314:Generated_Source\PSoC4/CapSense_SMS.c **** * Global Variables:
ARM GAS  C:\Users\jon\AppData\Local\Temp\ccMQaWNJ.s 			page 15


 315:Generated_Source\PSoC4/CapSense_SMS.c **** *  None
 316:Generated_Source\PSoC4/CapSense_SMS.c **** *
 317:Generated_Source\PSoC4/CapSense_SMS.c **** * Side Effects:
 318:Generated_Source\PSoC4/CapSense_SMS.c **** *  None
 319:Generated_Source\PSoC4/CapSense_SMS.c **** *
 320:Generated_Source\PSoC4/CapSense_SMS.c **** *******************************************************************************/
 321:Generated_Source\PSoC4/CapSense_SMS.c **** void CapSense_DisableBaselineIDAC(void)
 322:Generated_Source\PSoC4/CapSense_SMS.c **** {
 472              		.loc 1 322 0
 473              		.cfi_startproc
 474              		@ args = 0, pretend = 0, frame = 8
 475              		@ frame_needed = 1, uses_anonymous_args = 0
 476 0000 80B5     		push	{r7, lr}
 477              		.cfi_def_cfa_offset 8
 478              		.cfi_offset 7, -8
 479              		.cfi_offset 14, -4
 480 0002 82B0     		sub	sp, sp, #8
 481              		.cfi_def_cfa_offset 16
 482 0004 00AF     		add	r7, sp, #0
 483              		.cfi_def_cfa_register 7
 323:Generated_Source\PSoC4/CapSense_SMS.c ****     uint32 newRegValue;
 324:Generated_Source\PSoC4/CapSense_SMS.c **** 
 325:Generated_Source\PSoC4/CapSense_SMS.c ****     newRegValue = CapSense_CSD_IDAC_REG;
 484              		.loc 1 325 0
 485 0006 094B     		ldr	r3, .L23
 486 0008 1B68     		ldr	r3, [r3]
 487 000a 7B60     		str	r3, [r7, #4]
 326:Generated_Source\PSoC4/CapSense_SMS.c **** 
 327:Generated_Source\PSoC4/CapSense_SMS.c ****     newRegValue &= ~(CapSense_CSD_IDAC1_MODE_MASK | CapSense_CSD_IDAC2_MODE_MASK);
 488              		.loc 1 327 0
 489 000c 7B68     		ldr	r3, [r7, #4]
 490 000e 084A     		ldr	r2, .L23+4
 491 0010 1340     		ands	r3, r2
 492 0012 7B60     		str	r3, [r7, #4]
 328:Generated_Source\PSoC4/CapSense_SMS.c ****     newRegValue |= CapSense_CSD_IDAC1_MODE_VARIABLE;
 493              		.loc 1 328 0
 494 0014 7B68     		ldr	r3, [r7, #4]
 495 0016 8022     		movs	r2, #128
 496 0018 9200     		lsls	r2, r2, #2
 497 001a 1343     		orrs	r3, r2
 498 001c 7B60     		str	r3, [r7, #4]
 329:Generated_Source\PSoC4/CapSense_SMS.c **** 
 330:Generated_Source\PSoC4/CapSense_SMS.c ****     CapSense_CSD_IDAC_REG = newRegValue;
 499              		.loc 1 330 0
 500 001e 034B     		ldr	r3, .L23
 501 0020 7A68     		ldr	r2, [r7, #4]
 502 0022 1A60     		str	r2, [r3]
 331:Generated_Source\PSoC4/CapSense_SMS.c **** }
 503              		.loc 1 331 0
 504 0024 C046     		nop
 505 0026 BD46     		mov	sp, r7
 506 0028 02B0     		add	sp, sp, #8
 507              		@ sp needed
 508 002a 80BD     		pop	{r7, pc}
 509              	.L24:
 510              		.align	2
 511              	.L23:
ARM GAS  C:\Users\jon\AppData\Local\Temp\ccMQaWNJ.s 			page 16


 512 002c 08000840 		.word	1074266120
 513 0030 FFFCFFFC 		.word	-50332417
 514              		.cfi_endproc
 515              	.LFE35:
 516              		.size	CapSense_DisableBaselineIDAC, .-CapSense_DisableBaselineIDAC
 517              		.section	.text.CapSense_EnableBaselineIDAC,"ax",%progbits
 518              		.align	2
 519              		.global	CapSense_EnableBaselineIDAC
 520              		.code	16
 521              		.thumb_func
 522              		.type	CapSense_EnableBaselineIDAC, %function
 523              	CapSense_EnableBaselineIDAC:
 524              	.LFB36:
 332:Generated_Source\PSoC4/CapSense_SMS.c **** 
 333:Generated_Source\PSoC4/CapSense_SMS.c **** 
 334:Generated_Source\PSoC4/CapSense_SMS.c **** /*******************************************************************************
 335:Generated_Source\PSoC4/CapSense_SMS.c **** * Function Name: CapSense_EnableBaselineIDAC
 336:Generated_Source\PSoC4/CapSense_SMS.c **** ********************************************************************************
 337:Generated_Source\PSoC4/CapSense_SMS.c **** *
 338:Generated_Source\PSoC4/CapSense_SMS.c **** * Summary:
 339:Generated_Source\PSoC4/CapSense_SMS.c **** *  The API enables the Compensation IDAC.
 340:Generated_Source\PSoC4/CapSense_SMS.c **** *
 341:Generated_Source\PSoC4/CapSense_SMS.c **** * Parameters:
 342:Generated_Source\PSoC4/CapSense_SMS.c **** *  None
 343:Generated_Source\PSoC4/CapSense_SMS.c **** *
 344:Generated_Source\PSoC4/CapSense_SMS.c **** * Return:
 345:Generated_Source\PSoC4/CapSense_SMS.c **** *  None
 346:Generated_Source\PSoC4/CapSense_SMS.c **** *
 347:Generated_Source\PSoC4/CapSense_SMS.c **** * Global Variables:
 348:Generated_Source\PSoC4/CapSense_SMS.c **** *  CapSense_compensationIDAC[] - used to store a 7-bit idac value for all the sensors.
 349:Generated_Source\PSoC4/CapSense_SMS.c **** *
 350:Generated_Source\PSoC4/CapSense_SMS.c **** * Side Effects:
 351:Generated_Source\PSoC4/CapSense_SMS.c **** *  None
 352:Generated_Source\PSoC4/CapSense_SMS.c **** *
 353:Generated_Source\PSoC4/CapSense_SMS.c **** *******************************************************************************/
 354:Generated_Source\PSoC4/CapSense_SMS.c **** void  CapSense_EnableBaselineIDAC(const CapSense_CONFIG_TYPE_P4_v2_60 *config)
 355:Generated_Source\PSoC4/CapSense_SMS.c **** {
 525              		.loc 1 355 0
 526              		.cfi_startproc
 527              		@ args = 0, pretend = 0, frame = 16
 528              		@ frame_needed = 1, uses_anonymous_args = 0
 529 0000 80B5     		push	{r7, lr}
 530              		.cfi_def_cfa_offset 8
 531              		.cfi_offset 7, -8
 532              		.cfi_offset 14, -4
 533 0002 84B0     		sub	sp, sp, #16
 534              		.cfi_def_cfa_offset 24
 535 0004 00AF     		add	r7, sp, #0
 536              		.cfi_def_cfa_register 7
 537 0006 7860     		str	r0, [r7, #4]
 356:Generated_Source\PSoC4/CapSense_SMS.c ****     uint32 curSensor;
 357:Generated_Source\PSoC4/CapSense_SMS.c ****     uint32 newRegValue;
 358:Generated_Source\PSoC4/CapSense_SMS.c **** 
 359:Generated_Source\PSoC4/CapSense_SMS.c ****     for(curSensor = 0u; curSensor < config->totalScanslotsNum; curSensor++)
 538              		.loc 1 359 0
 539 0008 0023     		movs	r3, #0
 540 000a FB60     		str	r3, [r7, #12]
ARM GAS  C:\Users\jon\AppData\Local\Temp\ccMQaWNJ.s 			page 17


 541 000c 19E0     		b	.L26
 542              	.L27:
 360:Generated_Source\PSoC4/CapSense_SMS.c ****     {
 361:Generated_Source\PSoC4/CapSense_SMS.c ****         CapSense_compensationIDAC[curSensor] = CapSense_modulationIDAC[curSensor] / 2u;
 543              		.loc 1 361 0 discriminator 3
 544 000e 1C4A     		ldr	r2, .L28
 545 0010 FB68     		ldr	r3, [r7, #12]
 546 0012 D318     		adds	r3, r2, r3
 547 0014 1B78     		ldrb	r3, [r3]
 548 0016 5B08     		lsrs	r3, r3, #1
 549 0018 D9B2     		uxtb	r1, r3
 550 001a 1A4A     		ldr	r2, .L28+4
 551 001c FB68     		ldr	r3, [r7, #12]
 552 001e D318     		adds	r3, r2, r3
 553 0020 0A1C     		adds	r2, r1, #0
 554 0022 1A70     		strb	r2, [r3]
 362:Generated_Source\PSoC4/CapSense_SMS.c ****         CapSense_modulationIDAC[curSensor] = (CapSense_modulationIDAC[curSensor] + 1u) / 2u;
 555              		.loc 1 362 0 discriminator 3
 556 0024 164A     		ldr	r2, .L28
 557 0026 FB68     		ldr	r3, [r7, #12]
 558 0028 D318     		adds	r3, r2, r3
 559 002a 1B78     		ldrb	r3, [r3]
 560 002c 0133     		adds	r3, r3, #1
 561 002e 5B08     		lsrs	r3, r3, #1
 562 0030 D9B2     		uxtb	r1, r3
 563 0032 134A     		ldr	r2, .L28
 564 0034 FB68     		ldr	r3, [r7, #12]
 565 0036 D318     		adds	r3, r2, r3
 566 0038 0A1C     		adds	r2, r1, #0
 567 003a 1A70     		strb	r2, [r3]
 359:Generated_Source\PSoC4/CapSense_SMS.c ****     {
 568              		.loc 1 359 0 discriminator 3
 569 003c FB68     		ldr	r3, [r7, #12]
 570 003e 0133     		adds	r3, r3, #1
 571 0040 FB60     		str	r3, [r7, #12]
 572              	.L26:
 359:Generated_Source\PSoC4/CapSense_SMS.c ****     {
 573              		.loc 1 359 0 is_stmt 0 discriminator 1
 574 0042 7B68     		ldr	r3, [r7, #4]
 575 0044 1B78     		ldrb	r3, [r3]
 576 0046 1A00     		movs	r2, r3
 577 0048 FB68     		ldr	r3, [r7, #12]
 578 004a 9A42     		cmp	r2, r3
 579 004c DFD8     		bhi	.L27
 363:Generated_Source\PSoC4/CapSense_SMS.c ****     }
 364:Generated_Source\PSoC4/CapSense_SMS.c **** 
 365:Generated_Source\PSoC4/CapSense_SMS.c ****     CyIntDisable(CapSense_ISR_NUMBER);
 580              		.loc 1 365 0 is_stmt 1
 581 004e 0F20     		movs	r0, #15
 582 0050 FFF7FEFF 		bl	CyIntDisable
 366:Generated_Source\PSoC4/CapSense_SMS.c **** 
 367:Generated_Source\PSoC4/CapSense_SMS.c ****     newRegValue = CapSense_CSD_IDAC_REG;
 583              		.loc 1 367 0
 584 0054 0C4B     		ldr	r3, .L28+8
 585 0056 1B68     		ldr	r3, [r3]
 586 0058 BB60     		str	r3, [r7, #8]
 368:Generated_Source\PSoC4/CapSense_SMS.c ****     newRegValue &= ~(CapSense_CSD_IDAC1_MODE_MASK | CapSense_CSD_IDAC2_MODE_MASK);
ARM GAS  C:\Users\jon\AppData\Local\Temp\ccMQaWNJ.s 			page 18


 587              		.loc 1 368 0
 588 005a BB68     		ldr	r3, [r7, #8]
 589 005c 0B4A     		ldr	r2, .L28+12
 590 005e 1340     		ands	r3, r2
 591 0060 BB60     		str	r3, [r7, #8]
 369:Generated_Source\PSoC4/CapSense_SMS.c ****     newRegValue |= (CapSense_CSD_IDAC1_MODE_VARIABLE | CapSense_CSD_IDAC2_MODE_FIXED);
 592              		.loc 1 369 0
 593 0062 BB68     		ldr	r3, [r7, #8]
 594 0064 0A4A     		ldr	r2, .L28+16
 595 0066 1343     		orrs	r3, r2
 596 0068 BB60     		str	r3, [r7, #8]
 370:Generated_Source\PSoC4/CapSense_SMS.c ****     CapSense_CSD_IDAC_REG = newRegValue;
 597              		.loc 1 370 0
 598 006a 074B     		ldr	r3, .L28+8
 599 006c BA68     		ldr	r2, [r7, #8]
 600 006e 1A60     		str	r2, [r3]
 371:Generated_Source\PSoC4/CapSense_SMS.c **** 
 372:Generated_Source\PSoC4/CapSense_SMS.c ****     CyIntEnable(CapSense_ISR_NUMBER);
 601              		.loc 1 372 0
 602 0070 0F20     		movs	r0, #15
 603 0072 FFF7FEFF 		bl	CyIntEnable
 373:Generated_Source\PSoC4/CapSense_SMS.c **** }
 604              		.loc 1 373 0
 605 0076 C046     		nop
 606 0078 BD46     		mov	sp, r7
 607 007a 04B0     		add	sp, sp, #16
 608              		@ sp needed
 609 007c 80BD     		pop	{r7, pc}
 610              	.L29:
 611 007e C046     		.align	2
 612              	.L28:
 613 0080 00000000 		.word	CapSense_modulationIDAC
 614 0084 00000000 		.word	CapSense_compensationIDAC
 615 0088 08000840 		.word	1074266120
 616 008c FFFCFFFC 		.word	-50332417
 617 0090 00020001 		.word	16777728
 618              		.cfi_endproc
 619              	.LFE36:
 620              		.size	CapSense_EnableBaselineIDAC, .-CapSense_EnableBaselineIDAC
 621              		.section	.text.CapSense_SetSensitivity,"ax",%progbits
 622              		.align	2
 623              		.global	CapSense_SetSensitivity
 624              		.code	16
 625              		.thumb_func
 626              		.type	CapSense_SetSensitivity, %function
 627              	CapSense_SetSensitivity:
 628              	.LFB37:
 374:Generated_Source\PSoC4/CapSense_SMS.c **** 
 375:Generated_Source\PSoC4/CapSense_SMS.c **** 
 376:Generated_Source\PSoC4/CapSense_SMS.c **** /*******************************************************************************
 377:Generated_Source\PSoC4/CapSense_SMS.c **** * Function Name: CapSense_SetSensitivity
 378:Generated_Source\PSoC4/CapSense_SMS.c **** ********************************************************************************
 379:Generated_Source\PSoC4/CapSense_SMS.c **** *
 380:Generated_Source\PSoC4/CapSense_SMS.c **** * Summary:
 381:Generated_Source\PSoC4/CapSense_SMS.c **** *  This API sets the sensitivity value for the sensor. The sensitivity
 382:Generated_Source\PSoC4/CapSense_SMS.c **** *  value is used during the auto-tuning algorithm executed as part of the CapSense_Start API.
 383:Generated_Source\PSoC4/CapSense_SMS.c **** *  This API is called by the application layer prior to calling the CapSense_Start API.
ARM GAS  C:\Users\jon\AppData\Local\Temp\ccMQaWNJ.s 			page 19


 384:Generated_Source\PSoC4/CapSense_SMS.c **** *  Calling this API after execution of CapSense_Start API has no effect.
 385:Generated_Source\PSoC4/CapSense_SMS.c **** *
 386:Generated_Source\PSoC4/CapSense_SMS.c **** * Parameters:
 387:Generated_Source\PSoC4/CapSense_SMS.c **** *  sensor  Sensor index
 388:Generated_Source\PSoC4/CapSense_SMS.c **** *  data    Sensitivity of the sensor. Possible values are below
 389:Generated_Source\PSoC4/CapSense_SMS.c **** *  1 - 0.1pf sensitivity
 390:Generated_Source\PSoC4/CapSense_SMS.c **** *  2 - 0.2pf sensitivity
 391:Generated_Source\PSoC4/CapSense_SMS.c **** *  3 - 0.3pf sensitivity
 392:Generated_Source\PSoC4/CapSense_SMS.c **** *  4 - 0.4pf sensitivity
 393:Generated_Source\PSoC4/CapSense_SMS.c **** *  5 - 0.5pf sensitivity
 394:Generated_Source\PSoC4/CapSense_SMS.c **** *  6 - 0.6pf sensitivity
 395:Generated_Source\PSoC4/CapSense_SMS.c **** *  7 - 0.7pf sensitivity
 396:Generated_Source\PSoC4/CapSense_SMS.c **** *  8 - 0.8pf sensitivity
 397:Generated_Source\PSoC4/CapSense_SMS.c **** *  9 - 0.9pf sensitivity
 398:Generated_Source\PSoC4/CapSense_SMS.c **** *  10 - 1.0pf sensitivity
 399:Generated_Source\PSoC4/CapSense_SMS.c **** *  All other values, set sensitivity to 1.0pf
 400:Generated_Source\PSoC4/CapSense_SMS.c **** *
 401:Generated_Source\PSoC4/CapSense_SMS.c **** *  Return Value:
 402:Generated_Source\PSoC4/CapSense_SMS.c **** *   None
 403:Generated_Source\PSoC4/CapSense_SMS.c **** *
 404:Generated_Source\PSoC4/CapSense_SMS.c **** * Global Variables:
 405:Generated_Source\PSoC4/CapSense_SMS.c **** * CapSense_sensorSensitivity[] - This 8-bits array contains Sensitivity in the LSB nibble
 406:Generated_Source\PSoC4/CapSense_SMS.c **** *                                and Noise Reset Counter value in the MSB nibble.
 407:Generated_Source\PSoC4/CapSense_SMS.c **** *
 408:Generated_Source\PSoC4/CapSense_SMS.c **** * Side Effects:
 409:Generated_Source\PSoC4/CapSense_SMS.c **** *  None
 410:Generated_Source\PSoC4/CapSense_SMS.c **** *
 411:Generated_Source\PSoC4/CapSense_SMS.c **** *******************************************************************************/
 412:Generated_Source\PSoC4/CapSense_SMS.c **** void CapSense_SetSensitivity(uint32 sensor, uint32 value)
 413:Generated_Source\PSoC4/CapSense_SMS.c **** {
 629              		.loc 1 413 0
 630              		.cfi_startproc
 631              		@ args = 0, pretend = 0, frame = 8
 632              		@ frame_needed = 1, uses_anonymous_args = 0
 633 0000 80B5     		push	{r7, lr}
 634              		.cfi_def_cfa_offset 8
 635              		.cfi_offset 7, -8
 636              		.cfi_offset 14, -4
 637 0002 82B0     		sub	sp, sp, #8
 638              		.cfi_def_cfa_offset 16
 639 0004 00AF     		add	r7, sp, #0
 640              		.cfi_def_cfa_register 7
 641 0006 7860     		str	r0, [r7, #4]
 642 0008 3960     		str	r1, [r7]
 414:Generated_Source\PSoC4/CapSense_SMS.c ****     if(value > 10u)
 643              		.loc 1 414 0
 644 000a 3B68     		ldr	r3, [r7]
 645 000c 0A2B     		cmp	r3, #10
 646 000e 01D9     		bls	.L31
 415:Generated_Source\PSoC4/CapSense_SMS.c ****     {
 416:Generated_Source\PSoC4/CapSense_SMS.c ****         value = 10u;
 647              		.loc 1 416 0
 648 0010 0A23     		movs	r3, #10
 649 0012 3B60     		str	r3, [r7]
 650              	.L31:
 417:Generated_Source\PSoC4/CapSense_SMS.c ****     }
 418:Generated_Source\PSoC4/CapSense_SMS.c **** 
ARM GAS  C:\Users\jon\AppData\Local\Temp\ccMQaWNJ.s 			page 20


 419:Generated_Source\PSoC4/CapSense_SMS.c ****     /* Clear SensorSensitivity value in LSB nibble */
 420:Generated_Source\PSoC4/CapSense_SMS.c ****     CapSense_sensorSensitivity[sensor] &= (uint8)~CapSense_SENSITIVITY_MASK;
 651              		.loc 1 420 0
 652 0014 0F4A     		ldr	r2, .L32
 653 0016 7B68     		ldr	r3, [r7, #4]
 654 0018 D318     		adds	r3, r2, r3
 655 001a 1B78     		ldrb	r3, [r3]
 656 001c 0F22     		movs	r2, #15
 657 001e 9343     		bics	r3, r2
 658 0020 D9B2     		uxtb	r1, r3
 659 0022 0C4A     		ldr	r2, .L32
 660 0024 7B68     		ldr	r3, [r7, #4]
 661 0026 D318     		adds	r3, r2, r3
 662 0028 0A1C     		adds	r2, r1, #0
 663 002a 1A70     		strb	r2, [r3]
 421:Generated_Source\PSoC4/CapSense_SMS.c ****     /* Set SensorSensitivity value in LSB nibble */
 422:Generated_Source\PSoC4/CapSense_SMS.c ****     CapSense_sensorSensitivity[sensor] |= (uint8)value;
 664              		.loc 1 422 0
 665 002c 094A     		ldr	r2, .L32
 666 002e 7B68     		ldr	r3, [r7, #4]
 667 0030 D318     		adds	r3, r2, r3
 668 0032 1B78     		ldrb	r3, [r3]
 669 0034 5AB2     		sxtb	r2, r3
 670 0036 3B68     		ldr	r3, [r7]
 671 0038 5BB2     		sxtb	r3, r3
 672 003a 1343     		orrs	r3, r2
 673 003c 5BB2     		sxtb	r3, r3
 674 003e D9B2     		uxtb	r1, r3
 675 0040 044A     		ldr	r2, .L32
 676 0042 7B68     		ldr	r3, [r7, #4]
 677 0044 D318     		adds	r3, r2, r3
 678 0046 0A1C     		adds	r2, r1, #0
 679 0048 1A70     		strb	r2, [r3]
 423:Generated_Source\PSoC4/CapSense_SMS.c **** }
 680              		.loc 1 423 0
 681 004a C046     		nop
 682 004c BD46     		mov	sp, r7
 683 004e 02B0     		add	sp, sp, #8
 684              		@ sp needed
 685 0050 80BD     		pop	{r7, pc}
 686              	.L33:
 687 0052 C046     		.align	2
 688              	.L32:
 689 0054 00000000 		.word	CapSense_sensorSensitivity
 690              		.cfi_endproc
 691              	.LFE37:
 692              		.size	CapSense_SetSensitivity, .-CapSense_SetSensitivity
 693              		.section	.text.CapSense_GetSensitivityCoefficient,"ax",%progbits
 694              		.align	2
 695              		.global	CapSense_GetSensitivityCoefficient
 696              		.code	16
 697              		.thumb_func
 698              		.type	CapSense_GetSensitivityCoefficient, %function
 699              	CapSense_GetSensitivityCoefficient:
 700              	.LFB38:
 424:Generated_Source\PSoC4/CapSense_SMS.c **** 
 425:Generated_Source\PSoC4/CapSense_SMS.c **** 
ARM GAS  C:\Users\jon\AppData\Local\Temp\ccMQaWNJ.s 			page 21


 426:Generated_Source\PSoC4/CapSense_SMS.c **** /*******************************************************************************
 427:Generated_Source\PSoC4/CapSense_SMS.c **** * Function Name: CapSense_GetSensitivityCoefficient
 428:Generated_Source\PSoC4/CapSense_SMS.c **** ********************************************************************************
 429:Generated_Source\PSoC4/CapSense_SMS.c **** *
 430:Generated_Source\PSoC4/CapSense_SMS.c **** * Summary:
 431:Generated_Source\PSoC4/CapSense_SMS.c **** *  This API returns the K coefficient for the appropriate sensor.
 432:Generated_Source\PSoC4/CapSense_SMS.c **** *
 433:Generated_Source\PSoC4/CapSense_SMS.c **** * Parameters:
 434:Generated_Source\PSoC4/CapSense_SMS.c **** *  sensor:  Sensor index
 435:Generated_Source\PSoC4/CapSense_SMS.c **** *
 436:Generated_Source\PSoC4/CapSense_SMS.c **** *  Return Value:
 437:Generated_Source\PSoC4/CapSense_SMS.c **** *   K - value for the appropriate sensor.
 438:Generated_Source\PSoC4/CapSense_SMS.c **** *
 439:Generated_Source\PSoC4/CapSense_SMS.c **** * Global Variables:
 440:Generated_Source\PSoC4/CapSense_SMS.c **** *  CapSense_kValueTbl[] - This 8-bits array contains the K value for each sensor.
 441:Generated_Source\PSoC4/CapSense_SMS.c **** *
 442:Generated_Source\PSoC4/CapSense_SMS.c **** * Side Effects:
 443:Generated_Source\PSoC4/CapSense_SMS.c **** *  None
 444:Generated_Source\PSoC4/CapSense_SMS.c **** *
 445:Generated_Source\PSoC4/CapSense_SMS.c **** *******************************************************************************/
 446:Generated_Source\PSoC4/CapSense_SMS.c **** uint8 CapSense_GetSensitivityCoefficient(uint32 sensor)
 447:Generated_Source\PSoC4/CapSense_SMS.c **** {
 701              		.loc 1 447 0
 702              		.cfi_startproc
 703              		@ args = 0, pretend = 0, frame = 8
 704              		@ frame_needed = 1, uses_anonymous_args = 0
 705 0000 80B5     		push	{r7, lr}
 706              		.cfi_def_cfa_offset 8
 707              		.cfi_offset 7, -8
 708              		.cfi_offset 14, -4
 709 0002 82B0     		sub	sp, sp, #8
 710              		.cfi_def_cfa_offset 16
 711 0004 00AF     		add	r7, sp, #0
 712              		.cfi_def_cfa_register 7
 713 0006 7860     		str	r0, [r7, #4]
 448:Generated_Source\PSoC4/CapSense_SMS.c ****     return (CapSense_kValueTbl[sensor]);
 714              		.loc 1 448 0
 715 0008 034A     		ldr	r2, .L36
 716 000a 7B68     		ldr	r3, [r7, #4]
 717 000c D318     		adds	r3, r2, r3
 718 000e 1B78     		ldrb	r3, [r3]
 449:Generated_Source\PSoC4/CapSense_SMS.c **** }
 719              		.loc 1 449 0
 720 0010 1800     		movs	r0, r3
 721 0012 BD46     		mov	sp, r7
 722 0014 02B0     		add	sp, sp, #8
 723              		@ sp needed
 724 0016 80BD     		pop	{r7, pc}
 725              	.L37:
 726              		.align	2
 727              	.L36:
 728 0018 00000000 		.word	CapSense_kValueTbl
 729              		.cfi_endproc
 730              	.LFE38:
 731              		.size	CapSense_GetSensitivityCoefficient, .-CapSense_GetSensitivityCoefficient
 732              		.section	.text.CapSense_GetNoiseEnvelope,"ax",%progbits
 733              		.align	2
ARM GAS  C:\Users\jon\AppData\Local\Temp\ccMQaWNJ.s 			page 22


 734              		.global	CapSense_GetNoiseEnvelope
 735              		.code	16
 736              		.thumb_func
 737              		.type	CapSense_GetNoiseEnvelope, %function
 738              	CapSense_GetNoiseEnvelope:
 739              	.LFB39:
 450:Generated_Source\PSoC4/CapSense_SMS.c **** 
 451:Generated_Source\PSoC4/CapSense_SMS.c **** 
 452:Generated_Source\PSoC4/CapSense_SMS.c **** /*******************************************************************************
 453:Generated_Source\PSoC4/CapSense_SMS.c **** * Function Name: CapSense_GetNoiseEnvelope
 454:Generated_Source\PSoC4/CapSense_SMS.c **** ********************************************************************************
 455:Generated_Source\PSoC4/CapSense_SMS.c **** *
 456:Generated_Source\PSoC4/CapSense_SMS.c **** * Summary:
 457:Generated_Source\PSoC4/CapSense_SMS.c **** *  This function returns the noise value of a
 458:Generated_Source\PSoC4/CapSense_SMS.c **** *  component.
 459:Generated_Source\PSoC4/CapSense_SMS.c **** *
 460:Generated_Source\PSoC4/CapSense_SMS.c **** * Parameters:
 461:Generated_Source\PSoC4/CapSense_SMS.c **** *  sensor - Sensor number.
 462:Generated_Source\PSoC4/CapSense_SMS.c **** *
 463:Generated_Source\PSoC4/CapSense_SMS.c **** * Return:
 464:Generated_Source\PSoC4/CapSense_SMS.c **** *  The noise envelope value of the sensor
 465:Generated_Source\PSoC4/CapSense_SMS.c **** *  indicated by argument.
 466:Generated_Source\PSoC4/CapSense_SMS.c **** *
 467:Generated_Source\PSoC4/CapSense_SMS.c **** * Global Variables:
 468:Generated_Source\PSoC4/CapSense_SMS.c **** *  CapSense_noiseEnvelopeTbl[] - array with Noise Envelope.
 469:Generated_Source\PSoC4/CapSense_SMS.c **** *
 470:Generated_Source\PSoC4/CapSense_SMS.c **** * Side Effects:
 471:Generated_Source\PSoC4/CapSense_SMS.c **** *  None
 472:Generated_Source\PSoC4/CapSense_SMS.c **** *
 473:Generated_Source\PSoC4/CapSense_SMS.c **** *******************************************************************************/
 474:Generated_Source\PSoC4/CapSense_SMS.c **** uint16 CapSense_GetNoiseEnvelope(uint32 sensor)
 475:Generated_Source\PSoC4/CapSense_SMS.c **** {
 740              		.loc 1 475 0
 741              		.cfi_startproc
 742              		@ args = 0, pretend = 0, frame = 8
 743              		@ frame_needed = 1, uses_anonymous_args = 0
 744 0000 80B5     		push	{r7, lr}
 745              		.cfi_def_cfa_offset 8
 746              		.cfi_offset 7, -8
 747              		.cfi_offset 14, -4
 748 0002 82B0     		sub	sp, sp, #8
 749              		.cfi_def_cfa_offset 16
 750 0004 00AF     		add	r7, sp, #0
 751              		.cfi_def_cfa_register 7
 752 0006 7860     		str	r0, [r7, #4]
 476:Generated_Source\PSoC4/CapSense_SMS.c ****     return((uint16)((uint16)CapSense_noiseEnvelopeTbl[sensor] << 1u) + 1u);
 753              		.loc 1 476 0
 754 0008 064A     		ldr	r2, .L40
 755 000a 7B68     		ldr	r3, [r7, #4]
 756 000c D318     		adds	r3, r2, r3
 757 000e 1B78     		ldrb	r3, [r3]
 758 0010 9BB2     		uxth	r3, r3
 759 0012 DB18     		adds	r3, r3, r3
 760 0014 9BB2     		uxth	r3, r3
 761 0016 0133     		adds	r3, r3, #1
 762 0018 9BB2     		uxth	r3, r3
 477:Generated_Source\PSoC4/CapSense_SMS.c **** }
ARM GAS  C:\Users\jon\AppData\Local\Temp\ccMQaWNJ.s 			page 23


 763              		.loc 1 477 0
 764 001a 1800     		movs	r0, r3
 765 001c BD46     		mov	sp, r7
 766 001e 02B0     		add	sp, sp, #8
 767              		@ sp needed
 768 0020 80BD     		pop	{r7, pc}
 769              	.L41:
 770 0022 C046     		.align	2
 771              	.L40:
 772 0024 00000000 		.word	CapSense_noiseEnvelopeTbl
 773              		.cfi_endproc
 774              	.LFE39:
 775              		.size	CapSense_GetNoiseEnvelope, .-CapSense_GetNoiseEnvelope
 776              		.global	__aeabi_uidiv
 777              		.section	.text.CapSense_GetNormalizedDiffCountData,"ax",%progbits
 778              		.align	2
 779              		.global	CapSense_GetNormalizedDiffCountData
 780              		.code	16
 781              		.thumb_func
 782              		.type	CapSense_GetNormalizedDiffCountData, %function
 783              	CapSense_GetNormalizedDiffCountData:
 784              	.LFB40:
 478:Generated_Source\PSoC4/CapSense_SMS.c **** 
 479:Generated_Source\PSoC4/CapSense_SMS.c **** 
 480:Generated_Source\PSoC4/CapSense_SMS.c **** /*******************************************************************************
 481:Generated_Source\PSoC4/CapSense_SMS.c **** * Function Name: CapSense_GetNormalizedDiffCountData
 482:Generated_Source\PSoC4/CapSense_SMS.c **** ********************************************************************************
 483:Generated_Source\PSoC4/CapSense_SMS.c **** *
 484:Generated_Source\PSoC4/CapSense_SMS.c **** * Summary:
 485:Generated_Source\PSoC4/CapSense_SMS.c **** *  This API returns normalized difference count data.
 486:Generated_Source\PSoC4/CapSense_SMS.c **** *
 487:Generated_Source\PSoC4/CapSense_SMS.c **** * Parameters:
 488:Generated_Source\PSoC4/CapSense_SMS.c **** *  sensor:  Sensor number.
 489:Generated_Source\PSoC4/CapSense_SMS.c **** *
 490:Generated_Source\PSoC4/CapSense_SMS.c **** * Return:
 491:Generated_Source\PSoC4/CapSense_SMS.c **** *  This API returns a normalized count value of the sensor indicated by the
 492:Generated_Source\PSoC4/CapSense_SMS.c **** *  argument.
 493:Generated_Source\PSoC4/CapSense_SMS.c **** *
 494:Generated_Source\PSoC4/CapSense_SMS.c **** * Global Variables:
 495:Generated_Source\PSoC4/CapSense_SMS.c **** *  CapSense_sensorSignal[] - array with difference counts for sensors
 496:Generated_Source\PSoC4/CapSense_SMS.c **** *
 497:Generated_Source\PSoC4/CapSense_SMS.c **** * Side Effects:
 498:Generated_Source\PSoC4/CapSense_SMS.c **** *  None
 499:Generated_Source\PSoC4/CapSense_SMS.c **** *
 500:Generated_Source\PSoC4/CapSense_SMS.c **** *******************************************************************************/
 501:Generated_Source\PSoC4/CapSense_SMS.c **** uint16 CapSense_GetNormalizedDiffCountData(uint32 sensor)
 502:Generated_Source\PSoC4/CapSense_SMS.c **** {
 785              		.loc 1 502 0
 786              		.cfi_startproc
 787              		@ args = 0, pretend = 0, frame = 8
 788              		@ frame_needed = 1, uses_anonymous_args = 0
 789 0000 80B5     		push	{r7, lr}
 790              		.cfi_def_cfa_offset 8
 791              		.cfi_offset 7, -8
 792              		.cfi_offset 14, -4
 793 0002 82B0     		sub	sp, sp, #8
 794              		.cfi_def_cfa_offset 16
ARM GAS  C:\Users\jon\AppData\Local\Temp\ccMQaWNJ.s 			page 24


 795 0004 00AF     		add	r7, sp, #0
 796              		.cfi_def_cfa_register 7
 797 0006 7860     		str	r0, [r7, #4]
 503:Generated_Source\PSoC4/CapSense_SMS.c ****     return (uint16)(((uint32)CapSense_sensorSignal[sensor] << 7u) / CapSense_kValueTbl[sensor]);
 798              		.loc 1 503 0
 799 0008 084A     		ldr	r2, .L44
 800 000a 7B68     		ldr	r3, [r7, #4]
 801 000c D318     		adds	r3, r2, r3
 802 000e 1B78     		ldrb	r3, [r3]
 803 0010 D801     		lsls	r0, r3, #7
 804 0012 074A     		ldr	r2, .L44+4
 805 0014 7B68     		ldr	r3, [r7, #4]
 806 0016 D318     		adds	r3, r2, r3
 807 0018 1B78     		ldrb	r3, [r3]
 808 001a 1900     		movs	r1, r3
 809 001c FFF7FEFF 		bl	__aeabi_uidiv
 810 0020 0300     		movs	r3, r0
 811 0022 9BB2     		uxth	r3, r3
 504:Generated_Source\PSoC4/CapSense_SMS.c **** }
 812              		.loc 1 504 0
 813 0024 1800     		movs	r0, r3
 814 0026 BD46     		mov	sp, r7
 815 0028 02B0     		add	sp, sp, #8
 816              		@ sp needed
 817 002a 80BD     		pop	{r7, pc}
 818              	.L45:
 819              		.align	2
 820              	.L44:
 821 002c 00000000 		.word	CapSense_sensorSignal
 822 0030 00000000 		.word	CapSense_kValueTbl
 823              		.cfi_endproc
 824              	.LFE40:
 825              		.size	CapSense_GetNormalizedDiffCountData, .-CapSense_GetNormalizedDiffCountData
 826              		.text
 827              	.Letext0:
 828              		.file 2 "Generated_Source\\PSoC4\\cytypes.h"
 829              		.file 3 "Generated_Source\\PSoC4\\CapSense_PVT.h"
 830              		.file 4 "Generated_Source\\PSoC4\\CapSense.h"
 831              		.file 5 "Generated_Source\\PSoC4\\CapSense_CSHL.h"