ARM GAS  C:\Users\jon\AppData\Local\Temp\cc1G4ABg.s 			page 1


   1              		.syntax unified
   2              		.cpu cortex-m0
   3              		.fpu softvfp
   4              		.eabi_attribute 20, 1
   5              		.eabi_attribute 21, 1
   6              		.eabi_attribute 23, 3
   7              		.eabi_attribute 24, 1
   8              		.eabi_attribute 25, 1
   9              		.eabi_attribute 26, 1
  10              		.eabi_attribute 30, 6
  11              		.eabi_attribute 34, 0
  12              		.eabi_attribute 18, 4
  13              		.thumb
  14              		.syntax unified
  15              		.file	"main.c"
  16              		.text
  17              	.Ltext0:
  18              		.cfi_sections	.debug_frame
  19              		.global	lastPosition
  20              		.data
  21              		.align	1
  22              		.type	lastPosition, %object
  23              		.size	lastPosition, 2
  24              	lastPosition:
  25 0000 FFFF     		.short	-1
  26              		.section	.text.main,"ax",%progbits
  27              		.align	2
  28              		.global	main
  29              		.code	16
  30              		.thumb_func
  31              		.type	main, %function
  32              	main:
  33              	.LFB32:
  34              		.file 1 "main.c"
   1:main.c        **** /******************************************************************************
   2:main.c        **** * Project Name		: CapSense
   3:main.c        **** * File Name			: main.c
   4:main.c        **** * Version 			: 1.0
   5:main.c        **** * Device Used		: CY8C4245AXI-483
   6:main.c        **** * Software Used		: PSoC Creator 4.2
   7:main.c        **** * Compiler    		: ARM GCC 5.4.1
   8:main.c        **** * Related Hardware	: CY8CKIT-042 PSoC 4 Pioneer Kit
   9:main.c        **** *
  10:main.c        **** *******************************************************************************
  11:main.c        **** * Copyright (2019), Cypress Semiconductor Corporation. All rights reserved.
  12:main.c        **** *******************************************************************************
  13:main.c        **** * This software, including source code, documentation and related materials
  14:main.c        **** * (“Software”), is owned by Cypress Semiconductor Corporation or one of its
  15:main.c        **** * subsidiaries (“Cypress”) and is protected by and subject to worldwide patent
  16:main.c        **** * protection (United States and foreign), United States copyright laws and
  17:main.c        **** * international treaty provisions. Therefore, you may use this Software only
  18:main.c        **** * as provided in the license agreement accompanying the software package from
  19:main.c        **** * which you obtained this Software (“EULA”).
  20:main.c        **** *
  21:main.c        **** * If no EULA applies, Cypress hereby grants you a personal, nonexclusive,
  22:main.c        **** * non-transferable license to copy, modify, and compile the Software source
  23:main.c        **** * code solely for use in connection with Cypress’s integrated circuit products.
ARM GAS  C:\Users\jon\AppData\Local\Temp\cc1G4ABg.s 			page 2


  24:main.c        **** * Any reproduction, modification, translation, compilation, or representation
  25:main.c        **** * of this Software except as specified above is prohibited without the express
  26:main.c        **** * written permission of Cypress.
  27:main.c        **** *
  28:main.c        **** * Disclaimer: THIS SOFTWARE IS PROVIDED AS-IS, WITH NO WARRANTY OF ANY KIND,
  29:main.c        **** * EXPRESS OR IMPLIED, INCLUDING, BUT NOT LIMITED TO, NONINFRINGEMENT, IMPLIED
  30:main.c        **** * WARRANTIES OF MERCHANTABILITY AND FITNESS FOR A PARTICULAR PURPOSE. Cypress
  31:main.c        **** * reserves the right to make changes to the Software without notice. Cypress
  32:main.c        **** * does not assume any liability arising out of the application or use of the
  33:main.c        **** * Software or any product or circuit described in the Software. Cypress does
  34:main.c        **** * not authorize its products for use in any products where a malfunction or
  35:main.c        **** * failure of the Cypress product may reasonably be expected to result in
  36:main.c        **** * significant property damage, injury or death (“High Risk Product”). By
  37:main.c        **** * including Cypress’s product in a High Risk Product, the manufacturer of such
  38:main.c        **** * system or application assumes all risk of such use and in doing so agrees to
  39:main.c        **** * indemnify Cypress against all liability.
  40:main.c        **** *******************************************************************************/
  41:main.c        **** 
  42:main.c        **** /******************************************************************************
  43:main.c        **** *                           THEORY OF OPERATION
  44:main.c        **** * This project demonstrates the CapSense application using on board 5 segment
  45:main.c        **** * CapSense slider. The multicolor LED on the CY8CKIT-042 changes color from red
  46:main.c        **** * to green as you move the finger along the slider.
  47:main.c        **** *
  48:main.c        **** * Hardware connection on the Kit
  49:main.c        **** * Slider	 - P1[1:5]
  50:main.c        **** * LED_Green	 - P0[2]
  51:main.c        **** * LED_Red 	 - P1[6]
  52:main.c        **** ******************************************************************************/
  53:main.c        **** #include <project.h>
  54:main.c        **** 
  55:main.c        **** 
  56:main.c        **** /* Define constant for CapSense slider */
  57:main.c        **** #define NO_FINGER 0xFFFFu
  58:main.c        **** 
  59:main.c        **** /* Uncomment the following line to enable the tuner. Disabling the tuner allows
  60:main.c        ****  * the project to operate in a stand-alone fashion without connecting
  61:main.c        ****  * the I2C tuning interface */
  62:main.c        **** //#define ENABLE_TUNER
  63:main.c        **** 
  64:main.c        **** 
  65:main.c        **** uint16 lastPosition = NO_FINGER;
  66:main.c        **** 
  67:main.c        **** void UpdateRGB(void);
  68:main.c        **** 
  69:main.c        **** int main()
  70:main.c        **** {
  35              		.loc 1 70 0
  36              		.cfi_startproc
  37              		@ args = 0, pretend = 0, frame = 0
  38              		@ frame_needed = 1, uses_anonymous_args = 0
  39 0000 80B5     		push	{r7, lr}
  40              		.cfi_def_cfa_offset 8
  41              		.cfi_offset 7, -8
  42              		.cfi_offset 14, -4
  43 0002 00AF     		add	r7, sp, #0
  44              		.cfi_def_cfa_register 7
ARM GAS  C:\Users\jon\AppData\Local\Temp\cc1G4ABg.s 			page 3


  71:main.c        **** 	/* Enable Global Interrupts */
  72:main.c        **** 	CyGlobalIntEnable;
  45              		.loc 1 72 0
  46              		.syntax divided
  47              	@ 72 "main.c" 1
  48 0004 62B6     		CPSIE   i
  49              	@ 0 "" 2
  73:main.c        **** 
  74:main.c        **** 	/* Start all the components */
  75:main.c        **** 	Clock_Start();
  50              		.loc 1 75 0
  51              		.thumb
  52              		.syntax unified
  53 0006 FFF7FEFF 		bl	Clock_Start
  76:main.c        **** 	PWM_Start();
  54              		.loc 1 76 0
  55 000a FFF7FEFF 		bl	PWM_Start
  77:main.c        ****     RC_OUT_Start();
  56              		.loc 1 77 0
  57 000e FFF7FEFF 		bl	RC_OUT_Start
  78:main.c        **** 
  79:main.c        **** 	#ifdef ENABLE_TUNER
  80:main.c        **** 		CapSense_TunerStart();
  81:main.c        **** 	#else
  82:main.c        **** 		CapSense_Start();
  58              		.loc 1 82 0
  59 0012 FFF7FEFF 		bl	CapSense_Start
  83:main.c        **** 
  84:main.c        **** 	/* Initialize CapSense baselines by scanning enabled sensors */
  85:main.c        **** 	    CapSense_InitializeAllBaselines();
  60              		.loc 1 85 0
  61 0016 FFF7FEFF 		bl	CapSense_InitializeAllBaselines
  62              	.L4:
  86:main.c        **** 	#endif
  87:main.c        ****     
  88:main.c        **** 	for(;;)
  89:main.c        **** 	{
  90:main.c        **** 		#ifdef ENABLE_TUNER
  91:main.c        **** 			CapSense_TunerComm();
  92:main.c        **** 			UpdateRGB();
  93:main.c        **** 		#else
  94:main.c        **** 			/* Update all baselines */
  95:main.c        **** 			CapSense_UpdateEnabledBaselines();
  63              		.loc 1 95 0
  64 001a FFF7FEFF 		bl	CapSense_UpdateEnabledBaselines
  96:main.c        **** 
  97:main.c        **** 			/* Start scanning all enabled sensors */
  98:main.c        **** 	    	CapSense_ScanEnabledWidgets();
  65              		.loc 1 98 0
  66 001e FFF7FEFF 		bl	CapSense_ScanEnabledWidgets
  99:main.c        **** 
 100:main.c        **** 			/* Wait for scanning to complete */
 101:main.c        **** 			while(CapSense_IsBusy()!= 0)
  67              		.loc 1 101 0
  68 0022 01E0     		b	.L2
  69              	.L3:
 102:main.c        ****         	{
ARM GAS  C:\Users\jon\AppData\Local\Temp\cc1G4ABg.s 			page 4


 103:main.c        **** 				UpdateRGB();
  70              		.loc 1 103 0
  71 0024 FFF7FEFF 		bl	UpdateRGB
  72              	.L2:
 101:main.c        ****         	{
  73              		.loc 1 101 0
  74 0028 FFF7FEFF 		bl	CapSense_IsBusy
  75 002c 031E     		subs	r3, r0, #0
  76 002e F9D1     		bne	.L3
 104:main.c        **** 			}
 105:main.c        **** 
 106:main.c        **** 		#endif
 107:main.c        **** 	}
  77              		.loc 1 107 0
  78 0030 F3E7     		b	.L4
  79              		.cfi_endproc
  80              	.LFE32:
  81              		.size	main, .-main
  82              		.global	__aeabi_uidiv
  83 0032 C046     		.section	.text.UpdateRGB,"ax",%progbits
  84              		.align	2
  85              		.global	UpdateRGB
  86              		.code	16
  87              		.thumb_func
  88              		.type	UpdateRGB, %function
  89              	UpdateRGB:
  90              	.LFB33:
 108:main.c        **** }
 109:main.c        **** void UpdateRGB(void)
 110:main.c        **** {
  91              		.loc 1 110 0
  92              		.cfi_startproc
  93              		@ args = 0, pretend = 0, frame = 8
  94              		@ frame_needed = 1, uses_anonymous_args = 0
  95 0000 90B5     		push	{r4, r7, lr}
  96              		.cfi_def_cfa_offset 12
  97              		.cfi_offset 4, -12
  98              		.cfi_offset 7, -8
  99              		.cfi_offset 14, -4
 100 0002 83B0     		sub	sp, sp, #12
 101              		.cfi_def_cfa_offset 24
 102 0004 00AF     		add	r7, sp, #0
 103              		.cfi_def_cfa_register 7
 111:main.c        **** 	/* Find Slider Position */
 112:main.c        **** 	uint16 sliderPosition = CapSense_GetCentroidPos(CapSense_LINEARSLIDER0__LS);
 104              		.loc 1 112 0
 105 0006 BC1D     		adds	r4, r7, #6
 106 0008 0020     		movs	r0, #0
 107 000a FFF7FEFF 		bl	CapSense_GetCentroidPos
 108 000e 0300     		movs	r3, r0
 109 0010 2380     		strh	r3, [r4]
 113:main.c        **** 
 114:main.c        **** 	/*If finger is detected on the slider*/
 115:main.c        **** 	if(sliderPosition != NO_FINGER)
 110              		.loc 1 115 0
 111 0012 BB1D     		adds	r3, r7, #6
 112 0014 1B88     		ldrh	r3, [r3]
ARM GAS  C:\Users\jon\AppData\Local\Temp\cc1G4ABg.s 			page 5


 113 0016 184A     		ldr	r2, .L8
 114 0018 9342     		cmp	r3, r2
 115 001a 29D0     		beq	.L7
 116:main.c        **** 	{
 117:main.c        **** 		/* If finger position on the slider is changed then update the LED color */
 118:main.c        ****     	if(sliderPosition != lastPosition)
 116              		.loc 1 118 0
 117 001c 174B     		ldr	r3, .L8+4
 118 001e 1B88     		ldrh	r3, [r3]
 119 0020 BA1D     		adds	r2, r7, #6
 120 0022 1288     		ldrh	r2, [r2]
 121 0024 9A42     		cmp	r2, r3
 122 0026 23D0     		beq	.L7
 123              	.LBB2:
 119:main.c        ****     	{
 120:main.c        **** 			/* Update the PWM pulse width with the new slider position */
 121:main.c        ****         	PWM_WriteCompare(sliderPosition);
 124              		.loc 1 121 0
 125 0028 BB1D     		adds	r3, r7, #6
 126 002a 1B88     		ldrh	r3, [r3]
 127 002c 1800     		movs	r0, r3
 128 002e FFF7FEFF 		bl	PWM_WriteCompare
 122:main.c        ****             uint16 rc_pwm = (1000 + ((uint32)sliderPosition * 1000) / 255) / 10; 
 129              		.loc 1 122 0
 130 0032 BB1D     		adds	r3, r7, #6
 131 0034 1B88     		ldrh	r3, [r3]
 132 0036 FA22     		movs	r2, #250
 133 0038 9200     		lsls	r2, r2, #2
 134 003a 5343     		muls	r3, r2
 135 003c FF21     		movs	r1, #255
 136 003e 1800     		movs	r0, r3
 137 0040 FFF7FEFF 		bl	__aeabi_uidiv
 138 0044 0300     		movs	r3, r0
 139 0046 FA22     		movs	r2, #250
 140 0048 9200     		lsls	r2, r2, #2
 141 004a 9446     		mov	ip, r2
 142 004c 6344     		add	r3, r3, ip
 143 004e 0A21     		movs	r1, #10
 144 0050 1800     		movs	r0, r3
 145 0052 FFF7FEFF 		bl	__aeabi_uidiv
 146 0056 0300     		movs	r3, r0
 147 0058 1A00     		movs	r2, r3
 148 005a 3B1D     		adds	r3, r7, #4
 149 005c 1A80     		strh	r2, [r3]
 123:main.c        ****             RC_OUT_WriteCompare(rc_pwm);
 150              		.loc 1 123 0
 151 005e 3B1D     		adds	r3, r7, #4
 152 0060 1B88     		ldrh	r3, [r3]
 153 0062 1800     		movs	r0, r3
 154 0064 FFF7FEFF 		bl	RC_OUT_WriteCompare
 124:main.c        **** 			lastPosition = sliderPosition;
 155              		.loc 1 124 0
 156 0068 044B     		ldr	r3, .L8+4
 157 006a BA1D     		adds	r2, r7, #6
 158 006c 1288     		ldrh	r2, [r2]
 159 006e 1A80     		strh	r2, [r3]
 160              	.L7:
ARM GAS  C:\Users\jon\AppData\Local\Temp\cc1G4ABg.s 			page 6


 161              	.LBE2:
 125:main.c        **** 		}
 126:main.c        **** 	}
 127:main.c        **** }
 162              		.loc 1 127 0
 163 0070 C046     		nop
 164 0072 BD46     		mov	sp, r7
 165 0074 03B0     		add	sp, sp, #12
 166              		@ sp needed
 167 0076 90BD     		pop	{r4, r7, pc}
 168              	.L9:
 169              		.align	2
 170              	.L8:
 171 0078 FFFF0000 		.word	65535
 172 007c 00000000 		.word	lastPosition
 173              		.cfi_endproc
 174              	.LFE33:
 175              		.size	UpdateRGB, .-UpdateRGB
 176              		.text
 177              	.Letext0:
 178              		.file 2 "Generated_Source\\PSoC4/cytypes.h"