ARM GAS  C:\Users\jon\AppData\Local\Temp\ccSURQlV.s 			page 1


   1              		.syntax unified
   2              		.cpu cortex-m0
   3              		.fpu softvfp
   4              		.eabi_attribute 20, 1
   5              		.eabi_attribute 21, 1
   6              		.eabi_attribute 23, 3
   7              		.eabi_attribute 24, 1
   8              		.eabi_attribute 25, 1
   9              		.eabi_attribute 26, 1
  10              		.eabi_attribute 30, 6
  11              		.eabi_attribute 34, 0
  12              		.eabi_attribute 18, 4
  13              		.thumb
  14              		.syntax unified
  15              		.file	"CapSense_TunerHelper.c"
  16              		.text
  17              	.Ltext0:
  18              		.cfi_sections	.debug_frame
  19              		.comm	CapSense_mailboxesComm,58,4
  20              		.section	.text.CapSense_TunerStart,"ax",%progbits
  21              		.align	2
  22              		.global	CapSense_TunerStart
  23              		.code	16
  24              		.thumb_func
  25              		.type	CapSense_TunerStart, %function
  26              	CapSense_TunerStart:
  27              	.LFB32:
  28              		.file 1 "Generated_Source\\PSoC4\\CapSense_TunerHelper.c"
   1:Generated_Source\PSoC4/CapSense_TunerHelper.c **** /*******************************************************************************
   2:Generated_Source\PSoC4/CapSense_TunerHelper.c **** * File Name: CapSense_TunerHelper.c
   3:Generated_Source\PSoC4/CapSense_TunerHelper.c **** * Version 2.60
   4:Generated_Source\PSoC4/CapSense_TunerHelper.c **** *
   5:Generated_Source\PSoC4/CapSense_TunerHelper.c **** * Description:
   6:Generated_Source\PSoC4/CapSense_TunerHelper.c **** *  This file provides the source code of the Tuner helper APIs for the CapSense CSD
   7:Generated_Source\PSoC4/CapSense_TunerHelper.c **** *  component.
   8:Generated_Source\PSoC4/CapSense_TunerHelper.c **** *
   9:Generated_Source\PSoC4/CapSense_TunerHelper.c **** * Note:
  10:Generated_Source\PSoC4/CapSense_TunerHelper.c **** *
  11:Generated_Source\PSoC4/CapSense_TunerHelper.c **** ********************************************************************************
  12:Generated_Source\PSoC4/CapSense_TunerHelper.c **** * Copyright 2013-2016, Cypress Semiconductor Corporation.  All rights reserved.
  13:Generated_Source\PSoC4/CapSense_TunerHelper.c **** * You may use this file only in accordance with the license, terms, conditions,
  14:Generated_Source\PSoC4/CapSense_TunerHelper.c **** * disclaimers, and limitations in the end user license agreement accompanying
  15:Generated_Source\PSoC4/CapSense_TunerHelper.c **** * the software package with which this file was provided.
  16:Generated_Source\PSoC4/CapSense_TunerHelper.c **** *******************************************************************************/
  17:Generated_Source\PSoC4/CapSense_TunerHelper.c **** 
  18:Generated_Source\PSoC4/CapSense_TunerHelper.c **** #include "CapSense_TunerHelper.h"
  19:Generated_Source\PSoC4/CapSense_TunerHelper.c **** 
  20:Generated_Source\PSoC4/CapSense_TunerHelper.c **** 
  21:Generated_Source\PSoC4/CapSense_TunerHelper.c **** #if (CapSense_TUNER_API_GENERATE)
  22:Generated_Source\PSoC4/CapSense_TunerHelper.c ****     #include "EZI2C_1.h"
  23:Generated_Source\PSoC4/CapSense_TunerHelper.c ****     #include "EZI2C_1_EZI2C.h"
  24:Generated_Source\PSoC4/CapSense_TunerHelper.c ****     volatile CapSense_MAILBOXES CapSense_mailboxesComm;
  25:Generated_Source\PSoC4/CapSense_TunerHelper.c **** #endif  /* (CapSense_TUNER_API_GENERATE) */
  26:Generated_Source\PSoC4/CapSense_TunerHelper.c **** 
  27:Generated_Source\PSoC4/CapSense_TunerHelper.c **** /* `#START CapSense_TunerHelper_HEADER` */
  28:Generated_Source\PSoC4/CapSense_TunerHelper.c **** 
  29:Generated_Source\PSoC4/CapSense_TunerHelper.c **** /* `#END` */
ARM GAS  C:\Users\jon\AppData\Local\Temp\ccSURQlV.s 			page 2


  30:Generated_Source\PSoC4/CapSense_TunerHelper.c **** 
  31:Generated_Source\PSoC4/CapSense_TunerHelper.c **** /*******************************************************************************
  32:Generated_Source\PSoC4/CapSense_TunerHelper.c **** * Function Name: CapSense_TunerStart
  33:Generated_Source\PSoC4/CapSense_TunerHelper.c **** ********************************************************************************
  34:Generated_Source\PSoC4/CapSense_TunerHelper.c **** *
  35:Generated_Source\PSoC4/CapSense_TunerHelper.c **** * Summary:
  36:Generated_Source\PSoC4/CapSense_TunerHelper.c **** *  Initializes the CapSense CSD component and EzI2C communication component to use
  37:Generated_Source\PSoC4/CapSense_TunerHelper.c **** *  a mailbox data structure for communication with the Tuner GUI.
  38:Generated_Source\PSoC4/CapSense_TunerHelper.c **** *  Start the scanning, after initialization is complete.
  39:Generated_Source\PSoC4/CapSense_TunerHelper.c **** *
  40:Generated_Source\PSoC4/CapSense_TunerHelper.c **** * Parameters:
  41:Generated_Source\PSoC4/CapSense_TunerHelper.c **** *  None
  42:Generated_Source\PSoC4/CapSense_TunerHelper.c **** *
  43:Generated_Source\PSoC4/CapSense_TunerHelper.c **** * Return:
  44:Generated_Source\PSoC4/CapSense_TunerHelper.c **** *  None
  45:Generated_Source\PSoC4/CapSense_TunerHelper.c **** *
  46:Generated_Source\PSoC4/CapSense_TunerHelper.c **** * Global Variables:
  47:Generated_Source\PSoC4/CapSense_TunerHelper.c **** *  None
  48:Generated_Source\PSoC4/CapSense_TunerHelper.c **** *
  49:Generated_Source\PSoC4/CapSense_TunerHelper.c **** *******************************************************************************/
  50:Generated_Source\PSoC4/CapSense_TunerHelper.c **** void CapSense_TunerStart(void)
  51:Generated_Source\PSoC4/CapSense_TunerHelper.c **** {
  29              		.loc 1 51 0
  30              		.cfi_startproc
  31              		@ args = 0, pretend = 0, frame = 0
  32              		@ frame_needed = 1, uses_anonymous_args = 0
  33 0000 80B5     		push	{r7, lr}
  34              		.cfi_def_cfa_offset 8
  35              		.cfi_offset 7, -8
  36              		.cfi_offset 14, -4
  37 0002 00AF     		add	r7, sp, #0
  38              		.cfi_def_cfa_register 7
  52:Generated_Source\PSoC4/CapSense_TunerHelper.c ****     #if (0u != CapSense_TUNER_API_GENERATE)
  53:Generated_Source\PSoC4/CapSense_TunerHelper.c **** 
  54:Generated_Source\PSoC4/CapSense_TunerHelper.c ****         /* Init mbx and quick check */
  55:Generated_Source\PSoC4/CapSense_TunerHelper.c ****         CapSense_InitMailbox(&CapSense_mailboxesComm.csdMailbox);
  39              		.loc 1 55 0
  40 0004 0B4B     		ldr	r3, .L2
  41 0006 1800     		movs	r0, r3
  42 0008 FFF7FEFF 		bl	CapSense_InitMailbox
  56:Generated_Source\PSoC4/CapSense_TunerHelper.c ****         CapSense_mailboxesComm.numMailBoxes = CapSense_DEFAULT_MAILBOXES_NUMBER;
  43              		.loc 1 56 0
  44 000c 0A4B     		ldr	r3, .L2+4
  45 000e 0122     		movs	r2, #1
  46 0010 1A70     		strb	r2, [r3]
  57:Generated_Source\PSoC4/CapSense_TunerHelper.c **** 
  58:Generated_Source\PSoC4/CapSense_TunerHelper.c ****         /* Start CapSense and baselines */
  59:Generated_Source\PSoC4/CapSense_TunerHelper.c ****         CapSense_Start();
  47              		.loc 1 59 0
  48 0012 FFF7FEFF 		bl	CapSense_Start
  60:Generated_Source\PSoC4/CapSense_TunerHelper.c **** 
  61:Generated_Source\PSoC4/CapSense_TunerHelper.c ****         /* Initialize baselines */
  62:Generated_Source\PSoC4/CapSense_TunerHelper.c ****         #if(0u != CapSense_CSHL_API_GENERATE)
  63:Generated_Source\PSoC4/CapSense_TunerHelper.c ****             CapSense_InitializeEnabledBaselines();
  49              		.loc 1 63 0
  50 0016 FFF7FEFF 		bl	CapSense_InitializeEnabledBaselines
  64:Generated_Source\PSoC4/CapSense_TunerHelper.c ****         #endif /* (0u != CapSense_CSHL_API_GENERATE) */
ARM GAS  C:\Users\jon\AppData\Local\Temp\ccSURQlV.s 			page 3


  65:Generated_Source\PSoC4/CapSense_TunerHelper.c **** 
  66:Generated_Source\PSoC4/CapSense_TunerHelper.c ****         /* Start EzI2C, clears buf pointers */
  67:Generated_Source\PSoC4/CapSense_TunerHelper.c ****         EZI2C_1_Start();
  51              		.loc 1 67 0
  52 001a FFF7FEFF 		bl	EZI2C_1_Start
  68:Generated_Source\PSoC4/CapSense_TunerHelper.c **** 
  69:Generated_Source\PSoC4/CapSense_TunerHelper.c ****         /* Setup EzI2C buffers */
  70:Generated_Source\PSoC4/CapSense_TunerHelper.c ****         EZI2C_1_EzI2CSetBuffer1(sizeof(CapSense_mailboxesComm), sizeof(CapSense_mailboxesComm),
  53              		.loc 1 70 0
  54 001e 064B     		ldr	r3, .L2+4
  55 0020 1A00     		movs	r2, r3
  56 0022 3A21     		movs	r1, #58
  57 0024 3A20     		movs	r0, #58
  58 0026 FFF7FEFF 		bl	EZI2C_1_EzI2CSetBuffer1
  71:Generated_Source\PSoC4/CapSense_TunerHelper.c ****                                                    (volatile uint8 *) &CapSense_mailboxesComm);
  72:Generated_Source\PSoC4/CapSense_TunerHelper.c **** 
  73:Generated_Source\PSoC4/CapSense_TunerHelper.c ****         /* Starts scan all enabled sensors */
  74:Generated_Source\PSoC4/CapSense_TunerHelper.c ****         CapSense_ScanEnabledWidgets();
  59              		.loc 1 74 0
  60 002a FFF7FEFF 		bl	CapSense_ScanEnabledWidgets
  75:Generated_Source\PSoC4/CapSense_TunerHelper.c **** 
  76:Generated_Source\PSoC4/CapSense_TunerHelper.c ****     #endif  /* (0u != CapSense_TUNER_API_GENERATE) */
  77:Generated_Source\PSoC4/CapSense_TunerHelper.c **** }
  61              		.loc 1 77 0
  62 002e C046     		nop
  63 0030 BD46     		mov	sp, r7
  64              		@ sp needed
  65 0032 80BD     		pop	{r7, pc}
  66              	.L3:
  67              		.align	2
  68              	.L2:
  69 0034 01000000 		.word	CapSense_mailboxesComm+1
  70 0038 00000000 		.word	CapSense_mailboxesComm
  71              		.cfi_endproc
  72              	.LFE32:
  73              		.size	CapSense_TunerStart, .-CapSense_TunerStart
  74              		.section	.text.CapSense_TunerComm,"ax",%progbits
  75              		.align	2
  76              		.global	CapSense_TunerComm
  77              		.code	16
  78              		.thumb_func
  79              		.type	CapSense_TunerComm, %function
  80              	CapSense_TunerComm:
  81              	.LFB33:
  78:Generated_Source\PSoC4/CapSense_TunerHelper.c **** 
  79:Generated_Source\PSoC4/CapSense_TunerHelper.c **** 
  80:Generated_Source\PSoC4/CapSense_TunerHelper.c **** /*******************************************************************************
  81:Generated_Source\PSoC4/CapSense_TunerHelper.c **** * Function Name: CapSense_TunerComm
  82:Generated_Source\PSoC4/CapSense_TunerHelper.c **** ********************************************************************************
  83:Generated_Source\PSoC4/CapSense_TunerHelper.c **** *
  84:Generated_Source\PSoC4/CapSense_TunerHelper.c **** * Summary:
  85:Generated_Source\PSoC4/CapSense_TunerHelper.c **** *  This function is blocking. It waits till scanning loop is completed and applies
  86:Generated_Source\PSoC4/CapSense_TunerHelper.c **** *  the new parameters from the Tuner GUI if available (the manual tuning mode only). Updates
  87:Generated_Source\PSoC4/CapSense_TunerHelper.c **** *  the enabled baselines and state of widgets. Waits while the Tuner GUI reports that
  88:Generated_Source\PSoC4/CapSense_TunerHelper.c **** *  the mailbox content  could be modified. Then loads the report data into the outbox
  89:Generated_Source\PSoC4/CapSense_TunerHelper.c **** *  and sets a busy flag. Starts a new scanning loop.
  90:Generated_Source\PSoC4/CapSense_TunerHelper.c **** *
ARM GAS  C:\Users\jon\AppData\Local\Temp\ccSURQlV.s 			page 4


  91:Generated_Source\PSoC4/CapSense_TunerHelper.c **** * Parameters:
  92:Generated_Source\PSoC4/CapSense_TunerHelper.c **** *  None
  93:Generated_Source\PSoC4/CapSense_TunerHelper.c **** *
  94:Generated_Source\PSoC4/CapSense_TunerHelper.c **** * Return:
  95:Generated_Source\PSoC4/CapSense_TunerHelper.c **** *  None
  96:Generated_Source\PSoC4/CapSense_TunerHelper.c **** *
  97:Generated_Source\PSoC4/CapSense_TunerHelper.c **** * Global Variables:
  98:Generated_Source\PSoC4/CapSense_TunerHelper.c **** *  None
  99:Generated_Source\PSoC4/CapSense_TunerHelper.c **** *
 100:Generated_Source\PSoC4/CapSense_TunerHelper.c **** *******************************************************************************/
 101:Generated_Source\PSoC4/CapSense_TunerHelper.c **** void CapSense_TunerComm(void)
 102:Generated_Source\PSoC4/CapSense_TunerHelper.c **** {
  82              		.loc 1 102 0
  83              		.cfi_startproc
  84              		@ args = 0, pretend = 0, frame = 0
  85              		@ frame_needed = 1, uses_anonymous_args = 0
  86 0000 80B5     		push	{r7, lr}
  87              		.cfi_def_cfa_offset 8
  88              		.cfi_offset 7, -8
  89              		.cfi_offset 14, -4
  90 0002 00AF     		add	r7, sp, #0
  91              		.cfi_def_cfa_register 7
 103:Generated_Source\PSoC4/CapSense_TunerHelper.c ****     #if (0u != CapSense_TUNER_API_GENERATE)
 104:Generated_Source\PSoC4/CapSense_TunerHelper.c ****         if (0u == CapSense_IsBusy())
  92              		.loc 1 104 0
  93 0004 FFF7FEFF 		bl	CapSense_IsBusy
  94 0008 031E     		subs	r3, r0, #0
  95 000a 1DD1     		bne	.L7
 105:Generated_Source\PSoC4/CapSense_TunerHelper.c ****         {
 106:Generated_Source\PSoC4/CapSense_TunerHelper.c ****             /* Apply new settings */
 107:Generated_Source\PSoC4/CapSense_TunerHelper.c ****             #if((CapSense_TUNING_METHOD != CapSense__TUNING_NONE) &&\
 108:Generated_Source\PSoC4/CapSense_TunerHelper.c ****                 (0u != CapSense_TOTAL_TRACKPAD_GESTURES_COUNT) ||\
 109:Generated_Source\PSoC4/CapSense_TunerHelper.c ****                 (CapSense_TUNING_METHOD == CapSense__TUNING_MANUAL))
 110:Generated_Source\PSoC4/CapSense_TunerHelper.c **** 
 111:Generated_Source\PSoC4/CapSense_TunerHelper.c ****                 CapSense_ReadMessage(&CapSense_mailboxesComm.csdMailbox);
 112:Generated_Source\PSoC4/CapSense_TunerHelper.c **** 
 113:Generated_Source\PSoC4/CapSense_TunerHelper.c ****             #endif  /* ((CapSense_TUNING_METHOD != CapSense__TUNING_NONE) &&\
 114:Generated_Source\PSoC4/CapSense_TunerHelper.c ****                         (0u != CapSense_TOTAL_TRACKPAD_GESTURES_COUNT) ||\
 115:Generated_Source\PSoC4/CapSense_TunerHelper.c ****                         (CapSense_TUNING_METHOD == CapSense__TUNING_MANUAL)) */
 116:Generated_Source\PSoC4/CapSense_TunerHelper.c **** 
 117:Generated_Source\PSoC4/CapSense_TunerHelper.c ****             #if(0u != CapSense_CSHL_API_GENERATE)
 118:Generated_Source\PSoC4/CapSense_TunerHelper.c ****                 /* Update all baselines and process all widgets */
 119:Generated_Source\PSoC4/CapSense_TunerHelper.c ****                 CapSense_UpdateEnabledBaselines();
  96              		.loc 1 119 0
  97 000c FFF7FEFF 		bl	CapSense_UpdateEnabledBaselines
 120:Generated_Source\PSoC4/CapSense_TunerHelper.c ****                 CapSense_ProcessAllWidgets(&CapSense_mailboxesComm.csdMailbox.outbox);
  98              		.loc 1 120 0
  99 0010 0F4B     		ldr	r3, .L8
 100 0012 1800     		movs	r0, r3
 101 0014 FFF7FEFF 		bl	CapSense_ProcessAllWidgets
 121:Generated_Source\PSoC4/CapSense_TunerHelper.c ****             #endif /* (0u != CapSense_CSHL_API_GENERATE) */
 122:Generated_Source\PSoC4/CapSense_TunerHelper.c **** 
 123:Generated_Source\PSoC4/CapSense_TunerHelper.c ****             CapSense_PostMessage(&CapSense_mailboxesComm.csdMailbox);
 102              		.loc 1 123 0
 103 0018 0E4B     		ldr	r3, .L8+4
 104 001a 1800     		movs	r0, r3
 105 001c FFF7FEFF 		bl	CapSense_PostMessage
ARM GAS  C:\Users\jon\AppData\Local\Temp\ccSURQlV.s 			page 5


 124:Generated_Source\PSoC4/CapSense_TunerHelper.c **** 
 125:Generated_Source\PSoC4/CapSense_TunerHelper.c ****             /* Enable EZI2C interrupts, after scan complete */
 126:Generated_Source\PSoC4/CapSense_TunerHelper.c ****             EZI2C_1_EnableInt();
 106              		.loc 1 126 0
 107 0020 0B20     		movs	r0, #11
 108 0022 FFF7FEFF 		bl	CyIntEnable
 127:Generated_Source\PSoC4/CapSense_TunerHelper.c **** 
 128:Generated_Source\PSoC4/CapSense_TunerHelper.c ****             while((CapSense_mailboxesComm.csdMailbox.type != CapSense_TYPE_ID) ||
 109              		.loc 1 128 0
 110 0026 C046     		nop
 111              	.L6:
 112              		.loc 1 128 0 is_stmt 0 discriminator 3
 113 0028 0B4B     		ldr	r3, .L8+8
 114 002a 5B78     		ldrb	r3, [r3, #1]
 115 002c DBB2     		uxtb	r3, r3
 116 002e 042B     		cmp	r3, #4
 117 0030 FAD1     		bne	.L6
 129:Generated_Source\PSoC4/CapSense_TunerHelper.c ****                   (0u != (EZI2C_1_EzI2CGetActivity() & EZI2C_1_EZI2C_STATUS_BUSY))){}
 118              		.loc 1 129 0 is_stmt 1 discriminator 2
 119 0032 FFF7FEFF 		bl	EZI2C_1_EzI2CGetActivity
 120 0036 0200     		movs	r2, r0
 121 0038 2023     		movs	r3, #32
 122 003a 1340     		ands	r3, r2
 128:Generated_Source\PSoC4/CapSense_TunerHelper.c ****                   (0u != (EZI2C_1_EzI2CGetActivity() & EZI2C_1_EZI2C_STATUS_BUSY))){}
 123              		.loc 1 128 0 discriminator 2
 124 003c F4D1     		bne	.L6
 130:Generated_Source\PSoC4/CapSense_TunerHelper.c **** 
 131:Generated_Source\PSoC4/CapSense_TunerHelper.c ****             /* Disable EZI2C interrupts, while scanning */
 132:Generated_Source\PSoC4/CapSense_TunerHelper.c ****             EZI2C_1_DisableInt();
 125              		.loc 1 132 0
 126 003e 0B20     		movs	r0, #11
 127 0040 FFF7FEFF 		bl	CyIntDisable
 133:Generated_Source\PSoC4/CapSense_TunerHelper.c **** 
 134:Generated_Source\PSoC4/CapSense_TunerHelper.c ****             /* Start scan all sensors */
 135:Generated_Source\PSoC4/CapSense_TunerHelper.c ****             CapSense_ScanEnabledWidgets();
 128              		.loc 1 135 0
 129 0044 FFF7FEFF 		bl	CapSense_ScanEnabledWidgets
 130              	.L7:
 136:Generated_Source\PSoC4/CapSense_TunerHelper.c ****         }
 137:Generated_Source\PSoC4/CapSense_TunerHelper.c ****     #endif /* (0u != CapSense_TUNER_API_GENERATE) */
 138:Generated_Source\PSoC4/CapSense_TunerHelper.c **** }
 131              		.loc 1 138 0
 132 0048 C046     		nop
 133 004a BD46     		mov	sp, r7
 134              		@ sp needed
 135 004c 80BD     		pop	{r7, pc}
 136              	.L9:
 137 004e C046     		.align	2
 138              	.L8:
 139 0050 04000000 		.word	CapSense_mailboxesComm+4
 140 0054 01000000 		.word	CapSense_mailboxesComm+1
 141 0058 00000000 		.word	CapSense_mailboxesComm
 142              		.cfi_endproc
 143              	.LFE33:
 144              		.size	CapSense_TunerComm, .-CapSense_TunerComm
 145              		.section	.text.CapSense_ProcessAllWidgets,"ax",%progbits
 146              		.align	2
ARM GAS  C:\Users\jon\AppData\Local\Temp\ccSURQlV.s 			page 6


 147              		.global	CapSense_ProcessAllWidgets
 148              		.code	16
 149              		.thumb_func
 150              		.type	CapSense_ProcessAllWidgets, %function
 151              	CapSense_ProcessAllWidgets:
 152              	.LFB34:
 139:Generated_Source\PSoC4/CapSense_TunerHelper.c **** 
 140:Generated_Source\PSoC4/CapSense_TunerHelper.c **** 
 141:Generated_Source\PSoC4/CapSense_TunerHelper.c **** #if ((0u != CapSense_TUNER_API_GENERATE) && (0u != CapSense_CSHL_API_GENERATE))
 142:Generated_Source\PSoC4/CapSense_TunerHelper.c ****     /*******************************************************************************
 143:Generated_Source\PSoC4/CapSense_TunerHelper.c ****     * Function Name: CapSense_ProcessAllWidgets
 144:Generated_Source\PSoC4/CapSense_TunerHelper.c ****     ********************************************************************************
 145:Generated_Source\PSoC4/CapSense_TunerHelper.c ****     *
 146:Generated_Source\PSoC4/CapSense_TunerHelper.c ****     * Summary:
 147:Generated_Source\PSoC4/CapSense_TunerHelper.c ****     *  Calls the required functions to update all the widgets' state:
 148:Generated_Source\PSoC4/CapSense_TunerHelper.c ****     *   - CapSense_GetCentroidPos() - calls only if linear sliders are
 149:Generated_Source\PSoC4/CapSense_TunerHelper.c ****     *     available.
 150:Generated_Source\PSoC4/CapSense_TunerHelper.c ****     *   - CapSense_GetRadialCentroidPos() - calls only if the  radial slider is
 151:Generated_Source\PSoC4/CapSense_TunerHelper.c ****     *     available.
 152:Generated_Source\PSoC4/CapSense_TunerHelper.c ****     *   - CapSense_GetTouchCentroidPos() - calls only if the  touchpad slider
 153:Generated_Source\PSoC4/CapSense_TunerHelper.c ****     *     available.
 154:Generated_Source\PSoC4/CapSense_TunerHelper.c ****     *   - CapSense_CheckIsAnyWidgetActive();
 155:Generated_Source\PSoC4/CapSense_TunerHelper.c ****     *  The results of operations are copied to OUTBOX.
 156:Generated_Source\PSoC4/CapSense_TunerHelper.c ****     *
 157:Generated_Source\PSoC4/CapSense_TunerHelper.c ****     * Parameters:
 158:Generated_Source\PSoC4/CapSense_TunerHelper.c ****     *  None
 159:Generated_Source\PSoC4/CapSense_TunerHelper.c ****     *
 160:Generated_Source\PSoC4/CapSense_TunerHelper.c ****     * Return:
 161:Generated_Source\PSoC4/CapSense_TunerHelper.c ****     *  None
 162:Generated_Source\PSoC4/CapSense_TunerHelper.c ****     *
 163:Generated_Source\PSoC4/CapSense_TunerHelper.c ****     * Global Variables:
 164:Generated_Source\PSoC4/CapSense_TunerHelper.c ****     *  CapSense_OUTBOX outbox - the structure which is used as an output
 165:Generated_Source\PSoC4/CapSense_TunerHelper.c ****     *  buffer to report data to the Tuner GUI.
 166:Generated_Source\PSoC4/CapSense_TunerHelper.c ****     *  Update fields:
 167:Generated_Source\PSoC4/CapSense_TunerHelper.c ****     *    - position[];
 168:Generated_Source\PSoC4/CapSense_TunerHelper.c ****     *    - OnMask[];
 169:Generated_Source\PSoC4/CapSense_TunerHelper.c ****     *
 170:Generated_Source\PSoC4/CapSense_TunerHelper.c ****     * Global Variables:
 171:Generated_Source\PSoC4/CapSense_TunerHelper.c ****     *  None
 172:Generated_Source\PSoC4/CapSense_TunerHelper.c ****     *
 173:Generated_Source\PSoC4/CapSense_TunerHelper.c ****     *******************************************************************************/
 174:Generated_Source\PSoC4/CapSense_TunerHelper.c ****     void CapSense_ProcessAllWidgets(volatile CapSense_OUTBOX *outbox)
 175:Generated_Source\PSoC4/CapSense_TunerHelper.c ****     {
 153              		.loc 1 175 0
 154              		.cfi_startproc
 155              		@ args = 0, pretend = 0, frame = 16
 156              		@ frame_needed = 1, uses_anonymous_args = 0
 157 0000 90B5     		push	{r4, r7, lr}
 158              		.cfi_def_cfa_offset 12
 159              		.cfi_offset 4, -12
 160              		.cfi_offset 7, -8
 161              		.cfi_offset 14, -4
 162 0002 85B0     		sub	sp, sp, #20
 163              		.cfi_def_cfa_offset 32
 164 0004 00AF     		add	r7, sp, #0
 165              		.cfi_def_cfa_register 7
 166 0006 7860     		str	r0, [r7, #4]
ARM GAS  C:\Users\jon\AppData\Local\Temp\ccSURQlV.s 			page 7


 176:Generated_Source\PSoC4/CapSense_TunerHelper.c ****         uint8  i = 0u;
 167              		.loc 1 176 0
 168 0008 0F23     		movs	r3, #15
 169 000a FB18     		adds	r3, r7, r3
 170 000c 0022     		movs	r2, #0
 171 000e 1A70     		strb	r2, [r3]
 177:Generated_Source\PSoC4/CapSense_TunerHelper.c **** 
 178:Generated_Source\PSoC4/CapSense_TunerHelper.c ****         #if (0u != CapSense_TOTAL_MATRIX_BUTTONS_COUNT)
 179:Generated_Source\PSoC4/CapSense_TunerHelper.c ****             uint8 mbPositionBuf[CapSense_MB_POSITION_BUFFER_SIZE];
 180:Generated_Source\PSoC4/CapSense_TunerHelper.c ****         #endif /* (0u != CapSense_TOTAL_MATRIX_BUTTONS_COUNT) */
 181:Generated_Source\PSoC4/CapSense_TunerHelper.c **** 
 182:Generated_Source\PSoC4/CapSense_TunerHelper.c ****         #if (0u != CapSense_TOTAL_TOUCH_PADS_BASIC_COUNT)
 183:Generated_Source\PSoC4/CapSense_TunerHelper.c ****             uint16 centroidPosBuf[CapSense_CENTROID_POSITION_BUFFER_SIZE];
 184:Generated_Source\PSoC4/CapSense_TunerHelper.c ****         #endif  /* (0u != CapSense_TOTAL_TOUCH_PADS_BASIC_COUNT) */
 185:Generated_Source\PSoC4/CapSense_TunerHelper.c **** 
 186:Generated_Source\PSoC4/CapSense_TunerHelper.c ****         #if(0u != CapSense_TOTAL_TRACKPAD_GESTURES_COUNT)
 187:Generated_Source\PSoC4/CapSense_TunerHelper.c ****             CapSense_POSITION_STRUCT trackpadPosBuf[CapSense_CENTROID_POSITION_BUFFER_SIZE];
 188:Generated_Source\PSoC4/CapSense_TunerHelper.c ****         #endif  /* (0u != CapSense_TOTAL_TRACKPAD_GESTURES_COUNT) */
 189:Generated_Source\PSoC4/CapSense_TunerHelper.c **** 
 190:Generated_Source\PSoC4/CapSense_TunerHelper.c ****         #if ( (0u != CapSense_TOTAL_RADIAL_SLIDERS_COUNT) || (0u != CapSense_TOTAL_TOUCH_PADS_COUNT
 191:Generated_Source\PSoC4/CapSense_TunerHelper.c ****               (0u != CapSense_TOTAL_MATRIX_BUTTONS_COUNT))
 192:Generated_Source\PSoC4/CapSense_TunerHelper.c ****             uint8 widgetCnt;
 193:Generated_Source\PSoC4/CapSense_TunerHelper.c ****         #endif  /* ((0u != CapSense_TOTAL_RADIAL_SLIDERS_COUNT) || (0u != CapSense_TOTAL_TOUCH_PADS
 194:Generated_Source\PSoC4/CapSense_TunerHelper.c ****                 *   (0u != CapSense_TOTAL_MATRIX_BUTTONS_COUNT)
 195:Generated_Source\PSoC4/CapSense_TunerHelper.c ****                 */
 196:Generated_Source\PSoC4/CapSense_TunerHelper.c **** 
 197:Generated_Source\PSoC4/CapSense_TunerHelper.c ****         /* Calculate widget with centroids */
 198:Generated_Source\PSoC4/CapSense_TunerHelper.c ****         #if (0u != CapSense_TOTAL_LINEAR_SLIDERS_COUNT)
 199:Generated_Source\PSoC4/CapSense_TunerHelper.c ****             for(; i < CapSense_TOTAL_LINEAR_SLIDERS_COUNT; i++)
 172              		.loc 1 199 0
 173 0010 28E0     		b	.L11
 174              	.L12:
 200:Generated_Source\PSoC4/CapSense_TunerHelper.c ****             {
 201:Generated_Source\PSoC4/CapSense_TunerHelper.c ****                 outbox->centroidPosition[i] = (uint16)CapSense_GetCentroidPos((uint32)i);
 175              		.loc 1 201 0 discriminator 2
 176 0012 0F23     		movs	r3, #15
 177 0014 FB18     		adds	r3, r7, r3
 178 0016 1C78     		ldrb	r4, [r3]
 179 0018 0F23     		movs	r3, #15
 180 001a FB18     		adds	r3, r7, r3
 181 001c 1B78     		ldrb	r3, [r3]
 182 001e 1800     		movs	r0, r3
 183 0020 FFF7FEFF 		bl	CapSense_GetCentroidPos
 184 0024 0300     		movs	r3, r0
 185 0026 1A00     		movs	r2, r3
 186 0028 7968     		ldr	r1, [r7, #4]
 187 002a 6300     		lsls	r3, r4, #1
 188 002c CB18     		adds	r3, r1, r3
 189 002e 0133     		adds	r3, r3, #1
 190 0030 FF21     		movs	r1, #255
 191 0032 1140     		ands	r1, r2
 192 0034 0C00     		movs	r4, r1
 193 0036 1978     		ldrb	r1, [r3]
 194 0038 0020     		movs	r0, #0
 195 003a 0140     		ands	r1, r0
 196 003c 081C     		adds	r0, r1, #0
 197 003e 211C     		adds	r1, r4, #0
ARM GAS  C:\Users\jon\AppData\Local\Temp\ccSURQlV.s 			page 8


 198 0040 0143     		orrs	r1, r0
 199 0042 1970     		strb	r1, [r3]
 200 0044 120A     		lsrs	r2, r2, #8
 201 0046 90B2     		uxth	r0, r2
 202 0048 5A78     		ldrb	r2, [r3, #1]
 203 004a 0021     		movs	r1, #0
 204 004c 0A40     		ands	r2, r1
 205 004e 111C     		adds	r1, r2, #0
 206 0050 021C     		adds	r2, r0, #0
 207 0052 0A43     		orrs	r2, r1
 208 0054 5A70     		strb	r2, [r3, #1]
 199:Generated_Source\PSoC4/CapSense_TunerHelper.c ****             {
 209              		.loc 1 199 0 discriminator 2
 210 0056 0F23     		movs	r3, #15
 211 0058 FB18     		adds	r3, r7, r3
 212 005a 1A78     		ldrb	r2, [r3]
 213 005c 0F23     		movs	r3, #15
 214 005e FB18     		adds	r3, r7, r3
 215 0060 0132     		adds	r2, r2, #1
 216 0062 1A70     		strb	r2, [r3]
 217              	.L11:
 199:Generated_Source\PSoC4/CapSense_TunerHelper.c ****             {
 218              		.loc 1 199 0 is_stmt 0 discriminator 1
 219 0064 0F23     		movs	r3, #15
 220 0066 FB18     		adds	r3, r7, r3
 221 0068 1B78     		ldrb	r3, [r3]
 222 006a 002B     		cmp	r3, #0
 223 006c D1D0     		beq	.L12
 202:Generated_Source\PSoC4/CapSense_TunerHelper.c ****             }
 203:Generated_Source\PSoC4/CapSense_TunerHelper.c ****         #endif /* (0u != CapSense_TOTAL_LINEAR_SLIDERS_COUNT) */
 204:Generated_Source\PSoC4/CapSense_TunerHelper.c **** 
 205:Generated_Source\PSoC4/CapSense_TunerHelper.c ****         #if (0u != CapSense_TOTAL_RADIAL_SLIDERS_COUNT)
 206:Generated_Source\PSoC4/CapSense_TunerHelper.c ****             widgetCnt = i;
 207:Generated_Source\PSoC4/CapSense_TunerHelper.c ****             for(; i < (widgetCnt + CapSense_TOTAL_RADIAL_SLIDERS_COUNT); i++)
 208:Generated_Source\PSoC4/CapSense_TunerHelper.c ****             {
 209:Generated_Source\PSoC4/CapSense_TunerHelper.c ****                 outbox->centroidPosition[i] = (uint16)CapSense_GetRadialCentroidPos((uint32)i);
 210:Generated_Source\PSoC4/CapSense_TunerHelper.c ****             }
 211:Generated_Source\PSoC4/CapSense_TunerHelper.c ****         #endif /* (0u != CapSense_TOTAL_RADIAL_SLIDERS_COUNT) */
 212:Generated_Source\PSoC4/CapSense_TunerHelper.c **** 
 213:Generated_Source\PSoC4/CapSense_TunerHelper.c ****         #if (0u != CapSense_TOTAL_TOUCH_PADS_BASIC_COUNT)
 214:Generated_Source\PSoC4/CapSense_TunerHelper.c ****             widgetCnt = i;
 215:Generated_Source\PSoC4/CapSense_TunerHelper.c ****             for(; i < (widgetCnt + (CapSense_TOTAL_TOUCH_PADS_BASIC_COUNT * 2u)); i=i+2u)
 216:Generated_Source\PSoC4/CapSense_TunerHelper.c ****             {
 217:Generated_Source\PSoC4/CapSense_TunerHelper.c ****                 if(CapSense_GetTouchCentroidPos((uint32)i, centroidPosBuf) == 0u)
 218:Generated_Source\PSoC4/CapSense_TunerHelper.c ****                 {
 219:Generated_Source\PSoC4/CapSense_TunerHelper.c ****                     outbox->centroidPosition[i + CapSense_FIRST_FINGER_X_INDEX] = CapSense_MAX_UINT
 220:Generated_Source\PSoC4/CapSense_TunerHelper.c ****                     outbox->centroidPosition[i + CapSense_FIRST_FINGER_Y_INDEX] = CapSense_MAX_UINT
 221:Generated_Source\PSoC4/CapSense_TunerHelper.c ****                 }
 222:Generated_Source\PSoC4/CapSense_TunerHelper.c ****                 else
 223:Generated_Source\PSoC4/CapSense_TunerHelper.c ****                 {
 224:Generated_Source\PSoC4/CapSense_TunerHelper.c ****                     outbox->centroidPosition[i + CapSense_FIRST_FINGER_X_INDEX] =
 225:Generated_Source\PSoC4/CapSense_TunerHelper.c ****                     (uint16) centroidPosBuf[CapSense_FIRST_FINGER_X_INDEX];
 226:Generated_Source\PSoC4/CapSense_TunerHelper.c **** 
 227:Generated_Source\PSoC4/CapSense_TunerHelper.c ****                     outbox->centroidPosition[i + CapSense_FIRST_FINGER_Y_INDEX] =
 228:Generated_Source\PSoC4/CapSense_TunerHelper.c ****                     (uint16) centroidPosBuf[CapSense_FIRST_FINGER_Y_INDEX];
 229:Generated_Source\PSoC4/CapSense_TunerHelper.c ****                 }
 230:Generated_Source\PSoC4/CapSense_TunerHelper.c ****             }
ARM GAS  C:\Users\jon\AppData\Local\Temp\ccSURQlV.s 			page 9


 231:Generated_Source\PSoC4/CapSense_TunerHelper.c ****         #endif /* (0u != CapSense_TOTAL_TOUCH_PADS_BASIC_COUNT) */
 232:Generated_Source\PSoC4/CapSense_TunerHelper.c **** 
 233:Generated_Source\PSoC4/CapSense_TunerHelper.c ****         #if (0u != CapSense_TOTAL_TRACKPAD_GESTURES_COUNT)
 234:Generated_Source\PSoC4/CapSense_TunerHelper.c ****             widgetCnt = i;
 235:Generated_Source\PSoC4/CapSense_TunerHelper.c ****             for(; i < (widgetCnt + (CapSense_TOTAL_TRACKPAD_GESTURES_COUNT * 4u)); i=i+4u)
 236:Generated_Source\PSoC4/CapSense_TunerHelper.c ****             {
 237:Generated_Source\PSoC4/CapSense_TunerHelper.c ****                 outbox->fingersNum[CapSense_DEFAULT_TRACKPAD_INDEX] =
 238:Generated_Source\PSoC4/CapSense_TunerHelper.c ****                 (uint8)CapSense_GetDoubleTouchCentroidPos(trackpadPosBuf);
 239:Generated_Source\PSoC4/CapSense_TunerHelper.c **** 
 240:Generated_Source\PSoC4/CapSense_TunerHelper.c ****                 outbox->gestureID[CapSense_DEFAULT_TRACKPAD_INDEX] =
 241:Generated_Source\PSoC4/CapSense_TunerHelper.c ****                 (uint8)CapSense_DecodeAllGestures((uint32)outbox->fingersNum[CapSense_DEFAULT_TRACK
 242:Generated_Source\PSoC4/CapSense_TunerHelper.c **** 
 243:Generated_Source\PSoC4/CapSense_TunerHelper.c ****                 #if((0u != CapSense_ST_SCROLL_GEST_ENABLED) || (0u != CapSense_DT_SCROLL_GEST_ENABL
 244:Generated_Source\PSoC4/CapSense_TunerHelper.c ****                     /*
 245:Generated_Source\PSoC4/CapSense_TunerHelper.c ****                     Report Scroll count only for scroll and Inertial Scroll gestures.
 246:Generated_Source\PSoC4/CapSense_TunerHelper.c ****                     For all other gestures report scroll count as zero to tuner.
 247:Generated_Source\PSoC4/CapSense_TunerHelper.c ****                      */
 248:Generated_Source\PSoC4/CapSense_TunerHelper.c ****                     if (((outbox->gestureID[CapSense_DEFAULT_TRACKPAD_INDEX] & CapSense_GESTURE_TYP
 249:Generated_Source\PSoC4/CapSense_TunerHelper.c ****                         ((outbox->gestureID[CapSense_DEFAULT_TRACKPAD_INDEX] & CapSense_GESTURE_TYP
 250:Generated_Source\PSoC4/CapSense_TunerHelper.c ****                     {
 251:Generated_Source\PSoC4/CapSense_TunerHelper.c ****                         outbox->scrollCnt = CapSense_GetScrollCnt();
 252:Generated_Source\PSoC4/CapSense_TunerHelper.c ****                     }
 253:Generated_Source\PSoC4/CapSense_TunerHelper.c ****                     else
 254:Generated_Source\PSoC4/CapSense_TunerHelper.c ****                     {
 255:Generated_Source\PSoC4/CapSense_TunerHelper.c ****                         outbox->scrollCnt = 0u;
 256:Generated_Source\PSoC4/CapSense_TunerHelper.c ****                     }
 257:Generated_Source\PSoC4/CapSense_TunerHelper.c ****                 #endif /* ((0u != CapSense_ST_SCROLL_GEST_ENABLED) || (0u != CapSense_DT_SCROLL_GES
 258:Generated_Source\PSoC4/CapSense_TunerHelper.c **** 
 259:Generated_Source\PSoC4/CapSense_TunerHelper.c ****                 outbox->centroidPosition[i + CapSense_FIRST_FINGER_X_INDEX] = CapSense_MAX_UINT_16;
 260:Generated_Source\PSoC4/CapSense_TunerHelper.c ****                 outbox->centroidPosition[i + CapSense_FIRST_FINGER_Y_INDEX] = CapSense_MAX_UINT_16;
 261:Generated_Source\PSoC4/CapSense_TunerHelper.c ****                 outbox->centroidPosition[i + CapSense_SECOND_FINGER_X_INDEX] = CapSense_MAX_UINT_16
 262:Generated_Source\PSoC4/CapSense_TunerHelper.c ****                 outbox->centroidPosition[i + CapSense_SECOND_FINGER_Y_INDEX] = CapSense_MAX_UINT_16
 263:Generated_Source\PSoC4/CapSense_TunerHelper.c **** 
 264:Generated_Source\PSoC4/CapSense_TunerHelper.c ****                 if(0u != outbox->fingersNum[CapSense_DEFAULT_TRACKPAD_INDEX])
 265:Generated_Source\PSoC4/CapSense_TunerHelper.c ****                 {
 266:Generated_Source\PSoC4/CapSense_TunerHelper.c ****                     outbox->centroidPosition[i + CapSense_FIRST_FINGER_X_INDEX] =
 267:Generated_Source\PSoC4/CapSense_TunerHelper.c ****                     (uint16) trackpadPosBuf[CapSense_FIRST_FINGER_INDEX].x;
 268:Generated_Source\PSoC4/CapSense_TunerHelper.c **** 
 269:Generated_Source\PSoC4/CapSense_TunerHelper.c ****                     outbox->centroidPosition[i + CapSense_FIRST_FINGER_Y_INDEX] =
 270:Generated_Source\PSoC4/CapSense_TunerHelper.c ****                     (uint16) trackpadPosBuf[CapSense_FIRST_FINGER_INDEX].y;
 271:Generated_Source\PSoC4/CapSense_TunerHelper.c **** 
 272:Generated_Source\PSoC4/CapSense_TunerHelper.c ****                     if(outbox->fingersNum[CapSense_DEFAULT_TRACKPAD_INDEX] > 1u)
 273:Generated_Source\PSoC4/CapSense_TunerHelper.c ****                     {
 274:Generated_Source\PSoC4/CapSense_TunerHelper.c ****                         outbox->centroidPosition[i + CapSense_SECOND_FINGER_X_INDEX] =
 275:Generated_Source\PSoC4/CapSense_TunerHelper.c ****                         (uint16) trackpadPosBuf[CapSense_SECOND_FINGER_INDEX].x;
 276:Generated_Source\PSoC4/CapSense_TunerHelper.c **** 
 277:Generated_Source\PSoC4/CapSense_TunerHelper.c ****                         outbox->centroidPosition[i + CapSense_SECOND_FINGER_Y_INDEX] =
 278:Generated_Source\PSoC4/CapSense_TunerHelper.c ****                         (uint16) trackpadPosBuf[CapSense_SECOND_FINGER_INDEX].y;
 279:Generated_Source\PSoC4/CapSense_TunerHelper.c ****                     }
 280:Generated_Source\PSoC4/CapSense_TunerHelper.c ****                 }
 281:Generated_Source\PSoC4/CapSense_TunerHelper.c ****             }
 282:Generated_Source\PSoC4/CapSense_TunerHelper.c ****         #endif /* (0u != CapSense_TOTAL_TRACKPAD_GESTURES_COUNT) */
 283:Generated_Source\PSoC4/CapSense_TunerHelper.c **** 
 284:Generated_Source\PSoC4/CapSense_TunerHelper.c ****         #if (0u != CapSense_TOTAL_MATRIX_BUTTONS_COUNT)
 285:Generated_Source\PSoC4/CapSense_TunerHelper.c ****             i += CapSense_TOTAL_BUTTONS_COUNT;
 286:Generated_Source\PSoC4/CapSense_TunerHelper.c ****             widgetCnt = 0u;
 287:Generated_Source\PSoC4/CapSense_TunerHelper.c ****             for(; widgetCnt < (CapSense_TOTAL_MATRIX_BUTTONS_COUNT * 2u); widgetCnt += 2u)
ARM GAS  C:\Users\jon\AppData\Local\Temp\ccSURQlV.s 			page 10


 288:Generated_Source\PSoC4/CapSense_TunerHelper.c ****             {
 289:Generated_Source\PSoC4/CapSense_TunerHelper.c ****                 if(CapSense_GetMatrixButtonPos((uint32)i, mbPositionBuf) == 0u)
 290:Generated_Source\PSoC4/CapSense_TunerHelper.c ****                 {
 291:Generated_Source\PSoC4/CapSense_TunerHelper.c ****                     outbox->mbPosition[widgetCnt] = CapSense_MAX_UINT_8;
 292:Generated_Source\PSoC4/CapSense_TunerHelper.c ****                     outbox->mbPosition[widgetCnt+1u] = CapSense_MAX_UINT_8;
 293:Generated_Source\PSoC4/CapSense_TunerHelper.c ****                 }
 294:Generated_Source\PSoC4/CapSense_TunerHelper.c ****                 else
 295:Generated_Source\PSoC4/CapSense_TunerHelper.c ****                 {
 296:Generated_Source\PSoC4/CapSense_TunerHelper.c ****                     outbox->mbPosition[widgetCnt] = mbPositionBuf[0u];
 297:Generated_Source\PSoC4/CapSense_TunerHelper.c ****                     outbox->mbPosition[widgetCnt+1u] = mbPositionBuf[1u];
 298:Generated_Source\PSoC4/CapSense_TunerHelper.c ****                 }
 299:Generated_Source\PSoC4/CapSense_TunerHelper.c ****                 i += 2u;
 300:Generated_Source\PSoC4/CapSense_TunerHelper.c ****             }
 301:Generated_Source\PSoC4/CapSense_TunerHelper.c ****         #endif /* (0u != CapSense_TOTAL_MATRIX_BUTTONS_COUNT) */
 302:Generated_Source\PSoC4/CapSense_TunerHelper.c **** 
 303:Generated_Source\PSoC4/CapSense_TunerHelper.c ****         #if(0u != CapSense_CSHL_API_GENERATE)
 304:Generated_Source\PSoC4/CapSense_TunerHelper.c ****             /* Update On/Off State */
 305:Generated_Source\PSoC4/CapSense_TunerHelper.c ****             (void)CapSense_CheckIsAnyWidgetActive();
 224              		.loc 1 305 0 is_stmt 1
 225 006e FFF7FEFF 		bl	CapSense_CheckIsAnyWidgetActive
 306:Generated_Source\PSoC4/CapSense_TunerHelper.c **** 
 307:Generated_Source\PSoC4/CapSense_TunerHelper.c ****             /* Copy OnMask */
 308:Generated_Source\PSoC4/CapSense_TunerHelper.c ****             for(i=0u; i < CapSense_TOTAL_SENSOR_MASK_COUNT; i++)
 226              		.loc 1 308 0
 227 0072 0F23     		movs	r3, #15
 228 0074 FB18     		adds	r3, r7, r3
 229 0076 0022     		movs	r2, #0
 230 0078 1A70     		strb	r2, [r3]
 231 007a 10E0     		b	.L13
 232              	.L14:
 309:Generated_Source\PSoC4/CapSense_TunerHelper.c ****             {
 310:Generated_Source\PSoC4/CapSense_TunerHelper.c ****                 outbox->onMask[i]  = CapSense_sensorOnMask[i];
 233              		.loc 1 310 0 discriminator 3
 234 007c 0F23     		movs	r3, #15
 235 007e FB18     		adds	r3, r7, r3
 236 0080 1B78     		ldrb	r3, [r3]
 237 0082 0F22     		movs	r2, #15
 238 0084 BA18     		adds	r2, r7, r2
 239 0086 1278     		ldrb	r2, [r2]
 240 0088 0949     		ldr	r1, .L15
 241 008a 895C     		ldrb	r1, [r1, r2]
 242 008c 7A68     		ldr	r2, [r7, #4]
 243 008e D154     		strb	r1, [r2, r3]
 308:Generated_Source\PSoC4/CapSense_TunerHelper.c ****             {
 244              		.loc 1 308 0 discriminator 3
 245 0090 0F23     		movs	r3, #15
 246 0092 FB18     		adds	r3, r7, r3
 247 0094 1A78     		ldrb	r2, [r3]
 248 0096 0F23     		movs	r3, #15
 249 0098 FB18     		adds	r3, r7, r3
 250 009a 0132     		adds	r2, r2, #1
 251 009c 1A70     		strb	r2, [r3]
 252              	.L13:
 308:Generated_Source\PSoC4/CapSense_TunerHelper.c ****             {
 253              		.loc 1 308 0 is_stmt 0 discriminator 1
 254 009e 0F23     		movs	r3, #15
 255 00a0 FB18     		adds	r3, r7, r3
ARM GAS  C:\Users\jon\AppData\Local\Temp\ccSURQlV.s 			page 11


 256 00a2 1B78     		ldrb	r3, [r3]
 257 00a4 002B     		cmp	r3, #0
 258 00a6 E9D0     		beq	.L14
 311:Generated_Source\PSoC4/CapSense_TunerHelper.c ****             }
 312:Generated_Source\PSoC4/CapSense_TunerHelper.c ****         #endif /* (0u != CapSense_CSHL_API_GENERATE) */
 313:Generated_Source\PSoC4/CapSense_TunerHelper.c **** 
 314:Generated_Source\PSoC4/CapSense_TunerHelper.c ****         /* `#START CapSense_ProcessAllWidgets_Debug` */
 315:Generated_Source\PSoC4/CapSense_TunerHelper.c **** 
 316:Generated_Source\PSoC4/CapSense_TunerHelper.c ****         /* `#END` */
 317:Generated_Source\PSoC4/CapSense_TunerHelper.c **** 
 318:Generated_Source\PSoC4/CapSense_TunerHelper.c ****         #ifdef CapSense_PROCESS_ALL_WIDGETS_CALLBACK
 319:Generated_Source\PSoC4/CapSense_TunerHelper.c ****             CapSense_ProcessAllWidgets_Callback();
 320:Generated_Source\PSoC4/CapSense_TunerHelper.c ****         #endif /* CapSense_PROCESS_ALL_WIDGETS_CALLBACK */
 321:Generated_Source\PSoC4/CapSense_TunerHelper.c ****     }
 259              		.loc 1 321 0 is_stmt 1
 260 00a8 C046     		nop
 261 00aa BD46     		mov	sp, r7
 262 00ac 05B0     		add	sp, sp, #20
 263              		@ sp needed
 264 00ae 90BD     		pop	{r4, r7, pc}
 265              	.L16:
 266              		.align	2
 267              	.L15:
 268 00b0 00000000 		.word	CapSense_sensorOnMask
 269              		.cfi_endproc
 270              	.LFE34:
 271              		.size	CapSense_ProcessAllWidgets, .-CapSense_ProcessAllWidgets
 272              		.text
 273              	.Letext0:
 274              		.file 2 "Generated_Source\\PSoC4\\cytypes.h"
 275              		.file 3 "Generated_Source\\PSoC4\\CapSense_MBX.h"
 276              		.file 4 "Generated_Source\\PSoC4\\CapSense_CSHL.h"